ccopy_reg
_reconstructor
p0
(cnav_msgs.msg._OccupancyGrid
OccupancyGrid
p1
c__builtin__
object
p2
Ntp3
Rp4
(lp5
g0
(cstd_msgs.msg._Header
Header
p6
g2
Ntp7
Rp8
(lp9
I0
ag0
(cgenpy.rostime
Time
p10
g2
Ntp11
Rp12
(lp13
I6487
aI520000000
abaS'/map'
p14
abag0
(cnav_msgs.msg._MapMetaData
MapMetaData
p15
g2
Ntp16
Rp17
(lp18
g0
(g10
g2
Ntp19
Rp20
(lp21
I0
aI0
abaF0.10000000149011612
aI201
aI201
ag0
(cgeometry_msgs.msg._Pose
Pose
p22
g2
Ntp23
Rp24
(lp25
g0
(cgeometry_msgs.msg._Point
Point
p26
g2
Ntp27
Rp28
(lp29
F-9.999999809265137
aF-9.999999809265137
aF0.0
abag0
(cgeometry_msgs.msg._Quaternion
Quaternion
p30
g2
Ntp31
Rp32
(lp33
F0.0
aF0.0
aF0.0
aF0.0
abababa(I0
I0
I0
I0
I0
I0
I0
I0
I0
I0
I0
I0
I0
I0
I0
I0
I0
I0
I0
I0
I0
I0
I0
I0
I0
I0
I0
I0
I0
I0
I0
I0
I0
I0
I0
I0
I0
I0
I0
I0
I0
I0
I0
I0
I0
I0
I0
I0
I0
I0
I0
I0
I0
I0
I0
I0
I0
I0
I0
I0
I0
I0
I0
I0
I0
I0
I0
I0
I0
I0
I0
I0
I0
I0
I0
I0
I0
I0
I0
I0
I0
I0
I0
I0
I0
I0
I0
I0
I0
I0
I0
I0
I0
I0
I0
I0
I0
I0
I0
I0
I0
I0
I0
I0
I0
I0
I0
I0
I0
I0
I0
I0
I0
I0
I0
I0
I0
I0
I0
I0
I0
I0
I0
I0
I0
I0
I0
I0
I0
I0
I0
I0
I0
I0
I0
I0
I0
I0
I0
I0
I0
I0
I0
I0
I0
I0
I0
I0
I0
I0
I0
I0
I0
I0
I0
I0
I0
I0
I0
I0
I0
I0
I0
I0
I0
I0
I0
I0
I0
I0
I0
I0
I0
I0
I0
I0
I0
I0
I0
I0
I0
I0
I0
I0
I0
I0
I0
I0
I0
I0
I0
I0
I0
I0
I0
I0
I0
I0
I0
I0
I-1
I0
I0
I0
I0
I0
I0
I0
I0
I0
I0
I0
I0
I0
I0
I0
I0
I0
I0
I0
I0
I0
I0
I0
I0
I0
I0
I0
I0
I0
I0
I0
I0
I0
I0
I0
I0
I0
I0
I0
I0
I0
I0
I0
I0
I0
I0
I0
I0
I0
I0
I0
I0
I0
I0
I0
I0
I0
I0
I0
I0
I0
I0
I0
I0
I0
I0
I0
I0
I0
I0
I0
I0
I0
I0
I0
I0
I0
I0
I0
I0
I0
I0
I0
I0
I0
I0
I0
I0
I0
I0
I0
I0
I0
I0
I0
I0
I0
I0
I0
I0
I0
I0
I0
I0
I0
I0
I0
I0
I0
I0
I0
I0
I0
I0
I0
I0
I0
I0
I0
I0
I0
I0
I0
I0
I0
I0
I0
I0
I0
I0
I0
I0
I0
I0
I0
I0
I0
I0
I0
I0
I0
I0
I0
I0
I0
I0
I0
I0
I0
I0
I0
I0
I0
I0
I0
I0
I0
I0
I0
I0
I0
I0
I0
I0
I0
I0
I0
I0
I0
I0
I0
I0
I0
I0
I0
I0
I0
I0
I0
I0
I0
I0
I0
I0
I0
I0
I0
I0
I0
I0
I0
I0
I0
I0
I0
I0
I0
I0
I0
I0
I-1
I0
I0
I0
I0
I0
I0
I0
I0
I0
I0
I0
I0
I0
I0
I0
I0
I0
I0
I0
I0
I0
I0
I0
I0
I0
I0
I0
I0
I0
I0
I0
I0
I0
I0
I0
I0
I0
I0
I0
I0
I0
I0
I0
I0
I0
I0
I0
I0
I0
I0
I0
I0
I0
I0
I0
I0
I0
I0
I0
I0
I0
I0
I0
I0
I0
I0
I0
I0
I0
I0
I0
I0
I0
I0
I0
I0
I0
I0
I0
I0
I0
I0
I0
I0
I0
I0
I0
I0
I0
I0
I0
I0
I0
I0
I0
I0
I0
I0
I0
I0
I0
I0
I0
I0
I0
I0
I0
I0
I0
I0
I0
I0
I0
I0
I0
I0
I0
I0
I0
I0
I0
I0
I0
I0
I0
I0
I0
I0
I0
I0
I0
I0
I0
I0
I0
I0
I0
I0
I0
I0
I0
I0
I0
I0
I0
I0
I0
I0
I0
I0
I0
I0
I0
I0
I0
I0
I0
I0
I0
I0
I0
I0
I0
I0
I0
I0
I0
I0
I0
I0
I0
I0
I0
I0
I0
I0
I0
I0
I0
I0
I0
I0
I0
I0
I0
I0
I0
I0
I0
I0
I0
I0
I0
I0
I0
I0
I0
I0
I0
I0
I-1
I0
I0
I0
I0
I0
I0
I0
I0
I0
I0
I0
I0
I0
I0
I0
I0
I0
I0
I0
I0
I0
I0
I0
I0
I0
I0
I0
I0
I0
I0
I0
I0
I0
I0
I0
I0
I0
I0
I0
I0
I0
I0
I0
I0
I0
I0
I0
I0
I0
I0
I0
I0
I0
I0
I0
I0
I0
I0
I0
I0
I0
I0
I0
I0
I0
I0
I0
I0
I0
I0
I0
I0
I0
I0
I0
I0
I0
I0
I0
I0
I0
I0
I0
I0
I0
I0
I0
I0
I0
I0
I0
I0
I0
I0
I0
I0
I0
I0
I0
I0
I0
I0
I0
I0
I0
I0
I0
I0
I0
I0
I0
I0
I0
I0
I0
I0
I0
I0
I0
I0
I0
I0
I0
I0
I0
I0
I0
I0
I0
I0
I0
I0
I0
I0
I0
I0
I0
I0
I0
I0
I0
I0
I0
I0
I0
I0
I0
I0
I0
I0
I0
I0
I0
I0
I0
I0
I0
I0
I0
I0
I0
I0
I0
I0
I0
I0
I0
I0
I100
I100
I100
I0
I0
I0
I0
I0
I0
I0
I0
I0
I0
I0
I0
I0
I0
I0
I0
I0
I0
I0
I0
I0
I0
I0
I0
I0
I0
I0
I0
I0
I-1
I0
I0
I0
I0
I0
I0
I0
I0
I0
I0
I0
I0
I0
I0
I0
I0
I0
I0
I0
I0
I0
I0
I0
I0
I0
I0
I0
I0
I0
I0
I0
I0
I0
I0
I0
I0
I0
I0
I0
I0
I0
I0
I0
I0
I0
I0
I0
I0
I0
I0
I0
I0
I0
I0
I0
I0
I0
I0
I0
I0
I0
I0
I0
I0
I0
I0
I0
I0
I0
I0
I0
I0
I0
I0
I0
I0
I0
I0
I0
I0
I0
I0
I0
I0
I0
I0
I0
I0
I0
I0
I0
I0
I0
I0
I0
I0
I0
I0
I0
I0
I0
I0
I0
I0
I0
I0
I0
I0
I0
I0
I0
I0
I0
I0
I0
I0
I0
I0
I0
I0
I0
I0
I0
I0
I0
I0
I0
I0
I0
I0
I0
I0
I0
I0
I0
I0
I0
I0
I0
I0
I0
I0
I0
I0
I0
I0
I0
I0
I0
I0
I0
I0
I0
I0
I0
I0
I0
I0
I0
I0
I0
I0
I0
I0
I0
I0
I100
I100
I100
I100
I100
I100
I100
I0
I0
I0
I0
I0
I0
I0
I0
I0
I0
I0
I0
I0
I0
I0
I0
I0
I0
I0
I0
I0
I0
I0
I0
I0
I0
I0
I-1
I0
I0
I0
I0
I0
I0
I0
I0
I0
I0
I0
I0
I0
I0
I0
I0
I0
I0
I0
I0
I0
I0
I0
I0
I0
I0
I0
I0
I0
I0
I0
I0
I0
I0
I0
I0
I0
I0
I0
I0
I0
I0
I0
I0
I0
I0
I0
I0
I0
I0
I0
I0
I0
I0
I0
I0
I0
I0
I0
I0
I0
I0
I0
I0
I0
I0
I0
I0
I0
I0
I0
I0
I0
I0
I0
I0
I0
I0
I0
I0
I0
I0
I0
I0
I0
I0
I0
I0
I0
I0
I0
I0
I0
I0
I0
I0
I0
I0
I0
I0
I0
I0
I0
I0
I0
I0
I0
I0
I0
I0
I0
I0
I0
I0
I0
I0
I0
I0
I0
I0
I0
I0
I0
I0
I0
I0
I0
I0
I0
I0
I0
I0
I0
I0
I0
I0
I0
I0
I0
I0
I0
I0
I0
I0
I0
I0
I0
I0
I0
I0
I0
I0
I0
I0
I0
I0
I0
I0
I0
I0
I0
I0
I0
I0
I0
I100
I100
I100
I100
I100
I100
I100
I100
I100
I0
I0
I0
I0
I0
I0
I0
I0
I0
I0
I0
I0
I0
I0
I0
I0
I0
I0
I0
I0
I0
I0
I0
I0
I0
I0
I-1
I0
I0
I0
I0
I0
I0
I0
I0
I0
I0
I0
I0
I0
I0
I0
I0
I0
I0
I0
I0
I0
I0
I0
I0
I0
I0
I0
I0
I0
I0
I0
I0
I0
I0
I0
I0
I0
I0
I0
I0
I0
I0
I0
I0
I0
I0
I0
I0
I0
I0
I0
I0
I0
I0
I0
I0
I0
I0
I0
I0
I0
I0
I0
I0
I0
I0
I0
I0
I0
I0
I0
I0
I0
I0
I0
I0
I0
I0
I0
I0
I0
I0
I0
I0
I0
I0
I0
I0
I0
I0
I0
I0
I0
I0
I0
I0
I0
I0
I0
I0
I0
I0
I0
I0
I0
I0
I0
I0
I0
I0
I0
I0
I0
I0
I0
I0
I0
I0
I0
I0
I0
I0
I0
I0
I0
I0
I0
I0
I0
I0
I0
I0
I0
I0
I0
I0
I0
I0
I0
I0
I0
I0
I0
I0
I0
I0
I0
I0
I0
I0
I0
I0
I0
I0
I0
I0
I0
I0
I0
I0
I0
I0
I0
I0
I0
I100
I100
I100
I100
I100
I100
I100
I100
I100
I100
I0
I0
I0
I0
I0
I0
I0
I0
I0
I0
I0
I0
I0
I0
I0
I0
I0
I0
I0
I0
I0
I0
I0
I0
I0
I-1
I0
I0
I0
I0
I0
I0
I0
I0
I0
I0
I0
I0
I0
I0
I0
I0
I0
I0
I0
I0
I0
I0
I0
I0
I0
I0
I0
I0
I0
I0
I0
I0
I0
I0
I0
I0
I0
I0
I0
I0
I0
I0
I0
I0
I0
I0
I0
I0
I0
I0
I0
I0
I0
I0
I0
I0
I0
I0
I0
I0
I0
I0
I0
I0
I0
I0
I0
I0
I0
I0
I0
I0
I0
I0
I0
I0
I0
I0
I0
I0
I0
I0
I0
I0
I0
I0
I0
I0
I0
I0
I0
I0
I0
I0
I0
I0
I0
I0
I0
I0
I0
I0
I0
I0
I0
I0
I0
I0
I0
I0
I0
I0
I0
I0
I0
I0
I0
I0
I0
I0
I0
I0
I0
I0
I0
I0
I0
I0
I0
I0
I0
I0
I0
I0
I0
I0
I0
I0
I0
I0
I0
I0
I0
I0
I0
I0
I0
I0
I0
I0
I0
I0
I0
I0
I0
I0
I0
I0
I0
I0
I0
I0
I0
I0
I100
I100
I100
I100
I100
I100
I100
I100
I100
I100
I100
I0
I0
I0
I0
I0
I0
I0
I0
I0
I0
I0
I0
I0
I0
I0
I0
I0
I0
I0
I0
I0
I0
I0
I0
I0
I-1
I0
I0
I0
I0
I0
I0
I0
I0
I0
I0
I0
I0
I0
I0
I0
I0
I0
I0
I0
I0
I0
I0
I0
I0
I0
I0
I0
I0
I0
I0
I0
I0
I0
I0
I0
I0
I0
I0
I0
I0
I0
I0
I0
I0
I0
I0
I0
I0
I0
I0
I0
I0
I0
I0
I0
I0
I0
I0
I0
I0
I0
I0
I0
I0
I0
I0
I0
I0
I0
I0
I0
I0
I0
I0
I0
I0
I0
I0
I0
I0
I0
I0
I0
I0
I0
I0
I0
I0
I0
I0
I0
I0
I0
I0
I0
I0
I0
I0
I0
I0
I0
I0
I0
I0
I0
I0
I0
I0
I0
I0
I0
I0
I0
I0
I0
I0
I0
I0
I0
I0
I0
I0
I0
I0
I0
I0
I0
I0
I0
I0
I0
I0
I0
I0
I0
I0
I0
I0
I0
I0
I0
I0
I0
I0
I0
I0
I0
I0
I0
I0
I0
I0
I0
I0
I0
I0
I0
I0
I0
I0
I0
I0
I0
I0
I100
I100
I100
I100
I100
I100
I100
I100
I100
I100
I100
I0
I0
I0
I0
I0
I0
I0
I0
I0
I0
I0
I0
I0
I0
I0
I0
I0
I0
I0
I0
I0
I0
I0
I0
I0
I-1
I0
I0
I0
I0
I0
I0
I0
I0
I0
I0
I0
I0
I0
I0
I0
I0
I0
I0
I0
I0
I0
I0
I0
I0
I0
I0
I0
I0
I0
I0
I0
I0
I0
I0
I0
I0
I0
I0
I0
I0
I0
I0
I0
I0
I0
I0
I0
I0
I0
I0
I0
I0
I0
I0
I0
I0
I0
I0
I0
I0
I0
I0
I0
I0
I0
I0
I0
I0
I0
I0
I0
I0
I0
I0
I0
I0
I0
I0
I0
I0
I0
I0
I0
I0
I0
I0
I0
I0
I0
I0
I0
I0
I0
I0
I0
I0
I0
I0
I0
I0
I0
I0
I0
I0
I0
I0
I0
I0
I0
I0
I0
I0
I0
I0
I0
I0
I0
I0
I0
I0
I0
I0
I0
I0
I0
I0
I0
I0
I0
I0
I0
I0
I0
I0
I0
I0
I0
I0
I0
I0
I0
I0
I0
I0
I0
I0
I0
I0
I0
I0
I0
I0
I0
I0
I0
I0
I0
I0
I0
I0
I0
I0
I0
I0
I100
I100
I100
I100
I100
I100
I100
I100
I100
I100
I100
I0
I0
I0
I0
I0
I0
I0
I0
I0
I0
I0
I0
I0
I0
I0
I0
I0
I0
I0
I0
I0
I0
I0
I0
I0
I-1
I0
I0
I0
I0
I0
I0
I0
I0
I0
I0
I0
I0
I0
I0
I0
I0
I0
I0
I0
I0
I0
I0
I0
I0
I0
I0
I0
I0
I0
I0
I0
I0
I0
I0
I0
I0
I0
I0
I0
I0
I0
I0
I0
I0
I0
I0
I0
I0
I0
I0
I0
I0
I0
I0
I0
I0
I0
I0
I0
I0
I0
I0
I0
I0
I0
I0
I0
I0
I0
I0
I0
I0
I0
I0
I0
I0
I0
I0
I0
I0
I0
I0
I0
I0
I0
I0
I0
I0
I0
I0
I0
I0
I0
I0
I0
I0
I0
I0
I0
I0
I0
I0
I0
I0
I0
I0
I0
I0
I0
I0
I0
I0
I0
I0
I0
I0
I0
I0
I0
I0
I0
I0
I0
I0
I0
I0
I0
I0
I0
I0
I0
I0
I0
I0
I0
I0
I0
I0
I0
I0
I0
I0
I0
I0
I0
I0
I0
I0
I0
I0
I0
I0
I0
I0
I0
I0
I0
I0
I0
I0
I0
I0
I0
I0
I100
I100
I100
I100
I100
I100
I100
I100
I100
I100
I100
I0
I0
I0
I0
I0
I0
I0
I0
I0
I0
I0
I0
I0
I0
I0
I0
I0
I0
I0
I0
I0
I0
I0
I0
I0
I-1
I0
I0
I0
I0
I0
I0
I0
I0
I0
I0
I0
I0
I0
I0
I0
I0
I0
I0
I0
I0
I0
I0
I0
I0
I0
I0
I0
I0
I0
I0
I0
I0
I0
I0
I0
I0
I0
I0
I0
I0
I0
I0
I0
I0
I0
I0
I0
I0
I0
I0
I0
I0
I0
I0
I0
I0
I0
I0
I0
I0
I0
I0
I0
I0
I0
I0
I0
I0
I0
I0
I0
I0
I0
I0
I0
I0
I0
I0
I0
I0
I0
I0
I0
I0
I0
I0
I0
I0
I0
I0
I0
I0
I0
I0
I0
I0
I0
I0
I0
I0
I0
I0
I0
I0
I0
I0
I0
I0
I0
I0
I0
I0
I0
I0
I0
I0
I0
I0
I0
I0
I0
I0
I0
I0
I0
I0
I0
I0
I0
I0
I0
I0
I0
I0
I0
I0
I0
I0
I0
I0
I0
I0
I0
I0
I0
I0
I0
I0
I0
I0
I0
I0
I0
I0
I0
I0
I0
I0
I0
I0
I0
I0
I0
I0
I0
I100
I100
I100
I100
I100
I100
I100
I100
I100
I0
I0
I0
I0
I0
I0
I0
I0
I0
I0
I0
I0
I0
I0
I0
I0
I0
I0
I0
I0
I0
I0
I0
I0
I0
I0
I-1
I0
I0
I0
I0
I0
I0
I0
I0
I0
I0
I0
I0
I0
I0
I0
I0
I0
I0
I0
I0
I0
I0
I0
I0
I0
I0
I0
I0
I0
I0
I0
I0
I0
I0
I0
I0
I0
I0
I0
I0
I0
I0
I0
I0
I0
I0
I0
I0
I0
I0
I0
I0
I0
I0
I0
I0
I0
I0
I0
I0
I0
I0
I0
I0
I0
I0
I0
I0
I0
I0
I0
I0
I0
I0
I0
I0
I0
I0
I0
I0
I0
I0
I0
I0
I0
I0
I0
I0
I0
I0
I0
I0
I0
I0
I0
I0
I0
I0
I0
I0
I0
I0
I0
I0
I0
I0
I0
I0
I0
I0
I0
I0
I0
I0
I0
I0
I0
I0
I0
I0
I0
I0
I0
I0
I0
I0
I0
I0
I0
I0
I0
I0
I0
I0
I0
I0
I0
I0
I0
I0
I0
I0
I0
I0
I0
I0
I0
I0
I0
I0
I0
I0
I0
I0
I0
I0
I0
I0
I0
I0
I0
I0
I0
I0
I0
I0
I100
I100
I100
I100
I100
I100
I100
I0
I0
I0
I0
I0
I0
I0
I0
I0
I0
I0
I0
I0
I0
I0
I0
I0
I0
I0
I0
I0
I0
I0
I0
I0
I0
I0
I-1
I0
I0
I0
I0
I0
I0
I0
I0
I0
I0
I0
I0
I0
I0
I0
I0
I0
I0
I0
I0
I0
I0
I0
I0
I0
I0
I0
I0
I0
I0
I0
I0
I0
I0
I0
I0
I0
I0
I0
I0
I0
I0
I0
I0
I0
I0
I0
I0
I0
I0
I0
I0
I0
I0
I0
I0
I0
I0
I0
I0
I0
I0
I0
I0
I0
I0
I0
I0
I0
I0
I0
I0
I0
I0
I0
I0
I0
I0
I0
I0
I0
I0
I0
I0
I0
I0
I0
I0
I0
I0
I0
I0
I0
I0
I0
I0
I0
I0
I0
I0
I0
I0
I0
I0
I0
I0
I0
I0
I0
I0
I0
I0
I0
I0
I0
I0
I0
I0
I0
I0
I0
I0
I0
I0
I0
I0
I0
I0
I0
I0
I0
I0
I0
I0
I0
I0
I0
I0
I0
I0
I0
I0
I0
I0
I0
I0
I0
I0
I0
I0
I0
I0
I0
I0
I0
I0
I0
I0
I0
I0
I0
I0
I0
I0
I0
I0
I0
I100
I100
I100
I100
I100
I0
I0
I0
I0
I0
I0
I0
I0
I0
I0
I0
I0
I0
I0
I0
I0
I0
I0
I0
I0
I0
I0
I0
I0
I0
I0
I0
I0
I-1
I0
I0
I0
I0
I0
I0
I0
I0
I0
I0
I0
I0
I0
I0
I0
I0
I0
I100
I100
I100
I100
I100
I0
I0
I0
I0
I0
I0
I0
I0
I0
I0
I0
I0
I0
I0
I0
I0
I0
I0
I0
I0
I0
I0
I0
I0
I0
I0
I0
I0
I0
I0
I0
I0
I0
I0
I0
I0
I0
I0
I0
I0
I0
I0
I0
I0
I0
I0
I0
I0
I0
I0
I0
I0
I0
I0
I0
I0
I0
I0
I0
I0
I0
I0
I0
I0
I0
I0
I0
I0
I0
I0
I0
I0
I0
I0
I0
I0
I0
I0
I0
I0
I0
I0
I0
I0
I0
I0
I0
I0
I0
I0
I0
I0
I0
I0
I0
I0
I0
I0
I0
I0
I0
I0
I0
I0
I0
I0
I0
I0
I0
I0
I0
I0
I0
I0
I0
I0
I0
I0
I0
I0
I0
I0
I0
I0
I0
I0
I0
I0
I0
I0
I0
I0
I0
I0
I0
I0
I0
I0
I0
I0
I0
I0
I0
I0
I0
I0
I0
I0
I0
I0
I0
I0
I0
I0
I0
I0
I100
I100
I100
I100
I100
I0
I0
I0
I0
I0
I0
I0
I0
I0
I0
I0
I0
I0
I0
I0
I0
I0
I-1
I0
I0
I0
I0
I0
I0
I0
I0
I0
I0
I0
I0
I0
I0
I0
I0
I100
I100
I100
I100
I100
I100
I100
I100
I0
I0
I0
I0
I0
I0
I0
I0
I0
I0
I0
I0
I0
I0
I0
I0
I0
I0
I0
I0
I0
I0
I0
I0
I0
I0
I0
I0
I0
I0
I0
I0
I0
I0
I0
I0
I0
I0
I0
I0
I0
I0
I0
I0
I0
I0
I0
I0
I0
I0
I0
I0
I0
I0
I0
I0
I0
I0
I0
I0
I0
I0
I0
I0
I0
I0
I0
I0
I0
I0
I0
I0
I0
I0
I0
I0
I0
I0
I0
I0
I0
I0
I0
I0
I0
I0
I0
I0
I0
I0
I0
I0
I0
I0
I0
I0
I0
I0
I0
I0
I0
I0
I0
I0
I0
I0
I0
I0
I0
I0
I0
I0
I0
I0
I0
I0
I0
I0
I0
I0
I0
I0
I0
I0
I0
I0
I0
I0
I0
I0
I0
I0
I0
I0
I0
I0
I0
I0
I0
I0
I0
I0
I0
I0
I0
I0
I0
I0
I0
I0
I0
I0
I0
I100
I100
I100
I100
I100
I100
I100
I0
I0
I0
I0
I0
I0
I0
I0
I0
I0
I0
I0
I0
I0
I0
I0
I-1
I0
I0
I0
I0
I0
I0
I0
I0
I0
I0
I0
I0
I0
I0
I0
I100
I100
I100
I100
I100
I100
I100
I100
I100
I100
I0
I0
I0
I0
I0
I0
I0
I0
I0
I0
I0
I0
I0
I0
I0
I0
I0
I0
I0
I0
I0
I0
I0
I0
I0
I0
I0
I0
I0
I0
I0
I0
I0
I0
I0
I0
I0
I0
I0
I0
I0
I0
I0
I0
I0
I0
I0
I0
I0
I0
I0
I0
I0
I0
I0
I0
I0
I0
I0
I0
I0
I0
I0
I0
I0
I0
I0
I0
I0
I0
I0
I0
I0
I0
I0
I0
I0
I0
I0
I0
I0
I0
I0
I0
I0
I0
I0
I0
I0
I0
I0
I0
I0
I0
I0
I0
I0
I0
I0
I0
I0
I0
I0
I0
I0
I0
I0
I0
I0
I0
I0
I0
I0
I0
I0
I0
I0
I0
I0
I0
I0
I0
I0
I0
I0
I0
I0
I0
I0
I0
I0
I0
I0
I0
I0
I0
I0
I0
I0
I0
I0
I0
I0
I0
I0
I0
I0
I0
I0
I0
I0
I100
I100
I100
I100
I100
I100
I100
I100
I100
I0
I0
I0
I0
I0
I0
I0
I0
I0
I0
I0
I0
I0
I0
I0
I-1
I0
I0
I0
I0
I0
I0
I0
I0
I0
I0
I0
I0
I0
I0
I0
I100
I100
I100
I100
I100
I100
I100
I100
I100
I100
I0
I0
I0
I0
I0
I0
I0
I0
I0
I0
I0
I0
I0
I0
I0
I0
I0
I0
I0
I0
I0
I0
I0
I0
I0
I0
I0
I0
I0
I0
I0
I0
I0
I0
I0
I0
I0
I0
I0
I0
I0
I0
I0
I0
I0
I0
I0
I0
I0
I0
I0
I0
I0
I0
I0
I0
I0
I0
I0
I0
I0
I0
I0
I0
I0
I0
I0
I0
I0
I0
I0
I0
I0
I0
I0
I0
I0
I0
I0
I0
I0
I0
I0
I0
I0
I0
I0
I0
I0
I0
I0
I0
I0
I0
I0
I0
I0
I0
I0
I0
I0
I0
I0
I0
I0
I0
I0
I0
I0
I0
I0
I0
I0
I0
I0
I0
I0
I0
I0
I0
I0
I0
I0
I0
I0
I0
I0
I0
I0
I0
I0
I0
I0
I0
I0
I0
I0
I0
I0
I0
I0
I0
I0
I0
I0
I0
I0
I0
I0
I0
I100
I100
I100
I100
I100
I100
I100
I100
I100
I100
I100
I0
I0
I0
I0
I0
I0
I0
I0
I0
I0
I0
I0
I0
I0
I-1
I0
I0
I0
I0
I0
I0
I0
I0
I0
I0
I0
I0
I0
I0
I100
I100
I100
I100
I100
I100
I100
I100
I100
I100
I100
I0
I0
I0
I0
I0
I0
I0
I0
I0
I0
I0
I0
I0
I0
I0
I0
I0
I0
I0
I0
I0
I0
I0
I0
I0
I0
I0
I0
I0
I0
I0
I0
I0
I0
I0
I0
I0
I0
I0
I0
I0
I0
I0
I0
I0
I0
I0
I0
I0
I0
I0
I0
I0
I0
I0
I0
I0
I0
I0
I0
I0
I0
I0
I0
I0
I0
I0
I0
I0
I0
I0
I0
I0
I0
I0
I0
I0
I0
I0
I0
I0
I0
I0
I0
I0
I0
I0
I0
I0
I0
I0
I0
I0
I0
I0
I0
I0
I0
I0
I0
I0
I0
I0
I0
I0
I0
I0
I0
I0
I0
I0
I0
I0
I0
I0
I0
I0
I0
I0
I0
I0
I0
I0
I0
I0
I0
I0
I0
I0
I0
I0
I0
I0
I0
I0
I0
I0
I0
I0
I0
I0
I0
I0
I0
I0
I0
I0
I0
I0
I0
I100
I100
I100
I100
I100
I100
I100
I100
I100
I100
I100
I0
I0
I0
I0
I0
I0
I0
I0
I0
I0
I0
I0
I0
I0
I-1
I0
I0
I0
I0
I0
I0
I0
I0
I0
I0
I0
I0
I0
I0
I100
I100
I100
I100
I100
I100
I100
I100
I100
I100
I100
I0
I0
I0
I0
I0
I0
I0
I0
I0
I0
I0
I0
I0
I0
I0
I0
I0
I0
I0
I0
I0
I0
I0
I0
I0
I0
I0
I0
I0
I0
I0
I0
I0
I0
I0
I0
I0
I0
I0
I0
I0
I0
I0
I0
I0
I0
I0
I0
I0
I0
I0
I0
I0
I0
I0
I0
I0
I0
I0
I0
I0
I0
I0
I0
I0
I0
I0
I0
I0
I0
I0
I0
I0
I0
I0
I0
I0
I0
I0
I0
I0
I0
I0
I0
I0
I0
I0
I0
I0
I0
I0
I0
I0
I0
I0
I0
I0
I0
I0
I0
I0
I0
I0
I0
I0
I0
I0
I0
I0
I0
I0
I0
I0
I0
I0
I0
I0
I0
I0
I0
I0
I0
I0
I0
I0
I0
I0
I0
I0
I0
I0
I0
I0
I0
I0
I0
I0
I0
I0
I0
I0
I0
I0
I0
I0
I0
I0
I0
I0
I0
I100
I100
I100
I100
I100
I100
I100
I100
I100
I100
I100
I0
I0
I0
I0
I0
I0
I0
I0
I0
I0
I0
I0
I0
I0
I-1
I0
I0
I0
I0
I0
I0
I0
I0
I0
I0
I0
I0
I0
I0
I0
I100
I100
I100
I100
I100
I100
I100
I100
I100
I100
I0
I0
I0
I0
I0
I0
I0
I0
I0
I0
I0
I0
I0
I0
I0
I0
I0
I0
I0
I0
I0
I0
I0
I0
I0
I0
I0
I0
I0
I0
I0
I0
I0
I0
I0
I0
I0
I0
I0
I0
I0
I0
I0
I0
I0
I0
I0
I0
I0
I0
I0
I0
I0
I0
I0
I0
I0
I0
I0
I0
I0
I0
I0
I0
I0
I0
I0
I0
I0
I0
I0
I0
I0
I0
I0
I0
I0
I0
I0
I0
I0
I0
I0
I0
I0
I0
I0
I0
I0
I0
I0
I0
I0
I0
I0
I0
I0
I0
I0
I0
I0
I0
I0
I0
I0
I0
I0
I0
I0
I0
I0
I0
I0
I0
I0
I0
I0
I0
I0
I0
I0
I0
I0
I0
I0
I0
I0
I0
I0
I0
I0
I0
I0
I0
I0
I0
I0
I0
I0
I0
I0
I0
I0
I0
I0
I0
I0
I0
I0
I0
I100
I100
I100
I100
I100
I100
I100
I100
I100
I100
I100
I0
I0
I0
I0
I0
I0
I0
I0
I0
I0
I0
I0
I0
I0
I-1
I0
I0
I0
I0
I0
I0
I0
I0
I0
I0
I0
I0
I0
I0
I0
I100
I100
I100
I100
I100
I100
I100
I100
I100
I100
I0
I0
I0
I0
I0
I0
I0
I0
I0
I0
I0
I0
I0
I0
I0
I0
I0
I0
I0
I0
I0
I0
I0
I0
I0
I0
I0
I0
I0
I0
I0
I0
I0
I0
I0
I0
I0
I0
I0
I0
I0
I0
I0
I0
I0
I0
I0
I0
I0
I0
I0
I0
I0
I0
I0
I0
I0
I0
I0
I0
I0
I0
I0
I0
I0
I0
I0
I0
I0
I0
I0
I0
I0
I0
I0
I0
I0
I0
I0
I0
I0
I0
I0
I0
I0
I0
I0
I0
I0
I0
I0
I0
I0
I0
I0
I0
I0
I0
I0
I0
I0
I0
I0
I0
I0
I0
I0
I0
I0
I0
I0
I0
I0
I0
I0
I0
I0
I0
I0
I0
I0
I0
I0
I0
I0
I0
I0
I0
I0
I0
I0
I0
I0
I0
I0
I0
I0
I0
I0
I0
I0
I0
I0
I0
I0
I0
I0
I0
I0
I0
I100
I100
I100
I100
I100
I100
I100
I100
I100
I100
I100
I0
I0
I0
I0
I0
I0
I0
I0
I0
I0
I0
I0
I0
I0
I-1
I0
I0
I0
I0
I0
I0
I0
I0
I0
I0
I0
I0
I0
I0
I0
I0
I100
I100
I100
I100
I100
I100
I100
I100
I0
I0
I0
I0
I0
I0
I0
I0
I0
I0
I0
I0
I0
I0
I0
I0
I0
I0
I0
I0
I0
I0
I0
I0
I0
I0
I0
I0
I0
I0
I0
I0
I0
I0
I0
I0
I0
I0
I0
I0
I0
I0
I0
I0
I0
I0
I0
I0
I0
I0
I0
I0
I0
I0
I0
I0
I0
I0
I0
I0
I0
I0
I0
I0
I0
I0
I0
I0
I0
I0
I0
I0
I0
I0
I0
I0
I0
I0
I0
I0
I0
I0
I0
I0
I0
I0
I0
I0
I0
I0
I0
I0
I0
I0
I0
I0
I0
I0
I0
I0
I0
I0
I0
I0
I0
I0
I0
I0
I0
I0
I0
I0
I0
I0
I0
I0
I0
I0
I0
I0
I0
I0
I0
I0
I0
I0
I0
I0
I0
I0
I0
I0
I0
I0
I0
I0
I0
I0
I0
I0
I0
I0
I0
I0
I0
I0
I0
I0
I0
I0
I0
I0
I100
I100
I100
I100
I100
I100
I100
I100
I100
I0
I0
I0
I0
I0
I0
I0
I0
I0
I0
I0
I0
I0
I0
I0
I-1
I0
I0
I0
I0
I0
I0
I0
I0
I0
I0
I0
I0
I0
I0
I0
I0
I0
I100
I100
I100
I100
I100
I100
I0
I0
I0
I0
I0
I0
I0
I0
I0
I0
I0
I0
I0
I0
I0
I0
I0
I0
I0
I0
I0
I0
I0
I0
I0
I0
I0
I0
I0
I0
I0
I0
I0
I0
I0
I0
I0
I0
I0
I0
I0
I0
I0
I0
I0
I0
I0
I0
I0
I0
I0
I0
I0
I0
I0
I0
I0
I0
I0
I0
I0
I0
I0
I0
I0
I0
I0
I0
I0
I0
I0
I0
I0
I0
I0
I0
I0
I0
I0
I0
I0
I0
I0
I0
I0
I0
I0
I0
I0
I0
I0
I0
I0
I0
I0
I0
I0
I0
I0
I0
I0
I0
I0
I0
I0
I0
I0
I0
I0
I0
I0
I0
I0
I0
I0
I0
I0
I0
I0
I0
I0
I0
I0
I0
I0
I0
I0
I0
I0
I0
I0
I0
I0
I0
I0
I0
I0
I0
I0
I0
I0
I0
I0
I0
I0
I0
I0
I0
I0
I0
I0
I0
I0
I0
I100
I100
I100
I100
I100
I100
I100
I0
I0
I0
I0
I0
I0
I0
I0
I0
I0
I0
I0
I0
I0
I0
I0
I-1
I0
I0
I0
I0
I0
I0
I0
I0
I0
I0
I0
I0
I0
I0
I0
I0
I0
I0
I100
I100
I100
I100
I0
I0
I0
I0
I0
I0
I0
I0
I0
I0
I0
I0
I0
I0
I0
I0
I0
I0
I0
I0
I0
I0
I0
I0
I0
I0
I0
I0
I0
I0
I0
I0
I0
I0
I0
I0
I0
I0
I0
I0
I0
I0
I0
I0
I0
I0
I0
I0
I0
I0
I0
I0
I0
I0
I0
I0
I0
I0
I0
I0
I0
I0
I0
I0
I0
I0
I0
I0
I0
I0
I0
I0
I0
I0
I0
I0
I0
I0
I0
I0
I0
I0
I0
I0
I0
I0
I0
I0
I0
I0
I0
I0
I0
I0
I0
I0
I0
I0
I0
I0
I0
I0
I0
I0
I0
I0
I0
I0
I0
I0
I0
I0
I0
I0
I0
I0
I0
I0
I0
I0
I0
I0
I0
I0
I0
I0
I0
I0
I0
I0
I0
I0
I0
I0
I0
I0
I0
I0
I0
I0
I0
I0
I0
I0
I0
I0
I0
I0
I0
I0
I0
I0
I0
I0
I0
I0
I100
I100
I100
I100
I100
I0
I0
I0
I0
I0
I0
I0
I0
I0
I0
I0
I0
I0
I0
I0
I0
I0
I-1
I0
I0
I0
I0
I0
I0
I0
I0
I0
I0
I0
I0
I0
I0
I0
I0
I0
I0
I0
I0
I0
I0
I0
I0
I0
I0
I0
I0
I0
I0
I0
I0
I0
I0
I0
I0
I0
I0
I0
I0
I0
I0
I0
I0
I0
I0
I0
I0
I0
I0
I0
I0
I0
I0
I0
I0
I0
I0
I0
I0
I0
I0
I0
I0
I0
I0
I0
I0
I0
I0
I0
I0
I0
I0
I0
I0
I0
I0
I0
I0
I0
I0
I0
I0
I0
I0
I0
I0
I0
I0
I0
I0
I0
I0
I0
I0
I0
I0
I0
I0
I0
I0
I0
I0
I0
I0
I0
I0
I0
I0
I0
I0
I0
I0
I0
I0
I0
I0
I0
I0
I0
I0
I0
I0
I0
I0
I0
I0
I0
I0
I0
I0
I0
I0
I0
I0
I0
I0
I0
I0
I0
I0
I0
I0
I0
I0
I0
I0
I0
I0
I0
I0
I0
I0
I0
I0
I0
I0
I0
I0
I0
I0
I0
I0
I0
I0
I0
I0
I0
I0
I0
I0
I0
I0
I0
I0
I0
I0
I0
I0
I0
I0
I0
I0
I0
I0
I0
I0
I0
I0
I0
I0
I0
I0
I0
I0
I0
I0
I0
I0
I-1
I0
I0
I0
I0
I0
I0
I0
I0
I0
I0
I0
I0
I0
I0
I0
I0
I0
I0
I0
I0
I0
I0
I0
I0
I0
I0
I0
I0
I0
I0
I0
I0
I0
I0
I0
I0
I0
I0
I0
I0
I0
I0
I0
I0
I0
I0
I0
I0
I0
I0
I0
I0
I0
I0
I0
I0
I0
I0
I0
I0
I0
I0
I0
I0
I0
I0
I0
I0
I0
I0
I0
I0
I0
I0
I0
I0
I0
I0
I0
I0
I0
I0
I0
I0
I0
I0
I0
I0
I0
I0
I0
I0
I0
I0
I0
I0
I0
I0
I0
I0
I0
I0
I0
I0
I0
I0
I0
I0
I0
I0
I0
I0
I0
I0
I0
I0
I0
I0
I0
I0
I0
I0
I0
I0
I0
I0
I0
I0
I0
I0
I0
I0
I0
I0
I0
I0
I0
I0
I0
I0
I0
I0
I0
I0
I0
I0
I0
I0
I0
I0
I0
I0
I0
I0
I0
I0
I0
I0
I0
I0
I0
I0
I0
I0
I0
I0
I0
I0
I0
I0
I0
I0
I0
I0
I0
I0
I0
I0
I0
I0
I0
I0
I0
I0
I0
I0
I0
I0
I0
I0
I0
I0
I0
I0
I0
I0
I0
I0
I0
I0
I-1
I0
I0
I0
I0
I0
I0
I0
I0
I0
I0
I0
I0
I0
I0
I0
I0
I0
I0
I0
I0
I0
I0
I0
I0
I0
I0
I0
I0
I0
I0
I0
I0
I0
I0
I0
I0
I0
I0
I0
I0
I0
I0
I0
I0
I0
I0
I0
I0
I0
I0
I0
I0
I0
I0
I0
I0
I0
I0
I0
I0
I0
I0
I0
I0
I0
I0
I0
I0
I0
I0
I0
I0
I0
I0
I0
I0
I0
I0
I0
I0
I0
I0
I0
I0
I0
I0
I0
I0
I0
I0
I0
I0
I0
I0
I0
I0
I0
I0
I0
I0
I0
I0
I0
I0
I0
I0
I0
I0
I0
I0
I0
I0
I0
I0
I0
I0
I0
I0
I0
I0
I0
I0
I0
I0
I0
I0
I0
I0
I0
I0
I0
I0
I0
I0
I0
I0
I0
I0
I0
I0
I0
I0
I0
I0
I0
I0
I0
I0
I0
I0
I0
I0
I0
I0
I0
I0
I0
I0
I0
I0
I0
I0
I0
I0
I0
I0
I0
I0
I0
I0
I0
I0
I0
I0
I0
I0
I0
I0
I0
I0
I0
I0
I0
I0
I0
I0
I0
I0
I0
I0
I0
I0
I0
I0
I0
I0
I0
I0
I0
I0
I-1
I0
I0
I0
I0
I0
I0
I0
I0
I0
I0
I0
I0
I0
I0
I0
I0
I0
I0
I0
I0
I0
I0
I0
I0
I0
I0
I0
I0
I0
I0
I0
I0
I0
I0
I0
I0
I0
I0
I0
I0
I0
I0
I0
I0
I0
I0
I0
I0
I0
I0
I0
I0
I0
I0
I0
I0
I0
I0
I0
I0
I0
I0
I0
I0
I0
I0
I0
I0
I0
I0
I0
I0
I0
I0
I0
I0
I0
I0
I0
I0
I0
I0
I0
I0
I0
I0
I0
I0
I0
I0
I0
I0
I0
I0
I0
I0
I0
I0
I0
I0
I0
I0
I0
I0
I0
I0
I0
I0
I0
I0
I0
I0
I0
I0
I0
I0
I0
I0
I0
I0
I0
I0
I0
I0
I0
I0
I0
I0
I0
I0
I0
I0
I0
I0
I0
I0
I0
I0
I0
I0
I0
I0
I0
I0
I0
I0
I0
I0
I0
I0
I0
I0
I0
I0
I0
I0
I0
I0
I0
I0
I0
I0
I0
I0
I0
I0
I0
I0
I0
I0
I0
I0
I0
I0
I0
I0
I0
I0
I0
I0
I0
I0
I0
I0
I0
I0
I0
I0
I0
I0
I0
I0
I0
I0
I0
I0
I0
I0
I0
I0
I-1
I0
I0
I0
I0
I0
I0
I0
I0
I0
I0
I0
I0
I0
I0
I0
I0
I0
I0
I0
I0
I0
I0
I0
I0
I0
I0
I0
I0
I0
I0
I0
I0
I0
I0
I0
I0
I0
I0
I0
I0
I0
I0
I0
I0
I0
I0
I0
I0
I0
I0
I0
I0
I0
I0
I0
I0
I0
I0
I0
I0
I0
I0
I0
I0
I0
I0
I0
I0
I0
I0
I0
I0
I0
I0
I0
I0
I0
I0
I0
I0
I0
I0
I0
I0
I0
I0
I0
I0
I0
I0
I0
I0
I0
I0
I0
I0
I0
I0
I0
I0
I0
I0
I0
I0
I0
I0
I0
I0
I0
I0
I0
I0
I0
I0
I0
I0
I0
I0
I0
I0
I0
I0
I0
I0
I0
I0
I0
I0
I0
I0
I0
I0
I0
I0
I0
I0
I0
I0
I0
I0
I0
I0
I0
I0
I0
I0
I0
I0
I0
I0
I0
I0
I0
I0
I0
I0
I0
I0
I0
I0
I0
I0
I0
I0
I0
I0
I0
I0
I0
I0
I0
I0
I0
I0
I0
I0
I0
I0
I0
I0
I0
I0
I0
I0
I0
I0
I0
I0
I0
I0
I0
I0
I0
I0
I0
I0
I0
I0
I0
I0
I-1
I0
I0
I0
I0
I0
I0
I0
I0
I0
I0
I0
I0
I0
I0
I0
I0
I0
I0
I0
I0
I0
I0
I0
I0
I0
I0
I0
I0
I0
I0
I0
I0
I0
I0
I0
I0
I0
I0
I0
I0
I0
I0
I0
I0
I0
I0
I0
I0
I0
I0
I0
I0
I0
I0
I0
I0
I0
I0
I0
I0
I0
I0
I0
I0
I0
I0
I0
I0
I0
I0
I0
I0
I0
I0
I0
I0
I0
I0
I0
I0
I0
I0
I0
I0
I0
I0
I0
I0
I0
I0
I0
I0
I0
I0
I0
I0
I0
I0
I0
I0
I0
I0
I0
I0
I0
I0
I0
I0
I0
I0
I0
I0
I0
I0
I0
I0
I0
I0
I0
I0
I0
I0
I0
I0
I0
I0
I0
I0
I0
I0
I0
I0
I0
I0
I0
I0
I0
I0
I0
I0
I0
I0
I0
I0
I0
I0
I0
I0
I0
I0
I0
I0
I0
I0
I0
I0
I0
I0
I0
I0
I0
I0
I0
I0
I0
I0
I0
I0
I0
I0
I0
I0
I0
I0
I0
I0
I0
I0
I0
I0
I0
I0
I0
I0
I0
I0
I0
I0
I0
I0
I0
I0
I0
I0
I0
I0
I0
I0
I0
I0
I-1
I0
I0
I0
I0
I0
I0
I0
I0
I0
I0
I0
I0
I0
I0
I0
I0
I0
I0
I0
I0
I0
I0
I0
I0
I0
I0
I0
I0
I0
I0
I0
I0
I0
I0
I0
I0
I0
I0
I0
I0
I0
I0
I0
I0
I0
I0
I0
I0
I0
I0
I0
I0
I0
I0
I0
I0
I0
I0
I0
I0
I0
I0
I0
I0
I0
I0
I0
I0
I0
I0
I0
I0
I0
I0
I0
I0
I0
I0
I0
I0
I0
I0
I0
I0
I0
I0
I0
I0
I0
I0
I0
I0
I0
I0
I0
I0
I0
I0
I0
I0
I0
I0
I0
I0
I0
I0
I0
I0
I0
I0
I0
I0
I0
I0
I0
I0
I0
I0
I0
I0
I0
I0
I0
I0
I0
I0
I0
I0
I0
I0
I0
I0
I0
I0
I0
I0
I0
I0
I0
I0
I0
I0
I0
I0
I0
I0
I0
I0
I0
I0
I0
I0
I0
I0
I0
I0
I0
I0
I0
I0
I0
I0
I0
I0
I0
I0
I0
I0
I0
I0
I0
I0
I0
I0
I0
I0
I0
I0
I0
I0
I0
I0
I0
I0
I0
I0
I0
I0
I0
I0
I0
I0
I0
I0
I0
I0
I0
I0
I0
I0
I-1
I0
I0
I0
I0
I0
I0
I0
I0
I0
I0
I0
I0
I0
I0
I0
I0
I0
I0
I0
I0
I0
I0
I0
I0
I0
I0
I0
I0
I0
I0
I0
I0
I0
I0
I0
I0
I0
I0
I0
I0
I0
I0
I0
I0
I0
I0
I0
I0
I0
I0
I0
I0
I0
I0
I0
I0
I0
I0
I0
I0
I0
I0
I0
I0
I0
I0
I0
I0
I0
I0
I0
I0
I0
I0
I0
I0
I0
I0
I0
I0
I0
I0
I0
I0
I0
I0
I0
I0
I0
I0
I0
I0
I0
I0
I0
I0
I0
I0
I0
I0
I0
I0
I0
I0
I0
I0
I0
I0
I0
I0
I0
I0
I0
I0
I0
I0
I0
I0
I0
I0
I0
I0
I0
I0
I0
I0
I0
I0
I0
I0
I0
I0
I0
I0
I0
I0
I0
I0
I0
I0
I0
I0
I0
I0
I0
I0
I0
I0
I0
I0
I0
I0
I0
I0
I0
I0
I0
I0
I0
I0
I0
I0
I0
I0
I0
I0
I0
I0
I0
I0
I0
I0
I0
I0
I0
I0
I0
I0
I0
I0
I0
I0
I0
I0
I0
I0
I0
I0
I0
I0
I0
I0
I0
I0
I0
I0
I0
I0
I0
I0
I-1
I0
I0
I0
I0
I0
I0
I0
I0
I0
I0
I0
I0
I0
I0
I0
I0
I0
I0
I0
I0
I0
I0
I0
I0
I0
I0
I0
I0
I0
I0
I0
I0
I0
I0
I0
I0
I0
I0
I0
I0
I0
I0
I0
I0
I0
I0
I0
I0
I0
I0
I0
I0
I0
I0
I0
I0
I0
I0
I0
I0
I0
I0
I0
I0
I0
I0
I0
I0
I0
I0
I0
I0
I0
I0
I0
I0
I0
I0
I0
I0
I0
I0
I0
I0
I0
I0
I0
I0
I0
I0
I0
I0
I0
I0
I0
I0
I0
I0
I0
I0
I0
I0
I0
I0
I0
I0
I0
I0
I0
I0
I0
I0
I0
I0
I0
I0
I0
I0
I0
I0
I0
I0
I0
I0
I0
I0
I0
I0
I0
I0
I0
I0
I0
I0
I0
I0
I0
I0
I0
I0
I0
I0
I0
I0
I0
I0
I0
I0
I0
I0
I0
I0
I0
I0
I0
I0
I0
I0
I0
I0
I0
I0
I0
I0
I0
I0
I0
I0
I0
I0
I0
I0
I0
I0
I0
I0
I0
I0
I0
I0
I0
I0
I0
I0
I0
I0
I0
I0
I0
I0
I0
I0
I0
I0
I0
I0
I0
I0
I0
I0
I-1
I0
I0
I0
I0
I0
I0
I0
I0
I0
I0
I0
I0
I0
I0
I0
I0
I0
I0
I0
I0
I0
I0
I0
I0
I0
I0
I0
I0
I0
I0
I0
I0
I0
I0
I0
I0
I0
I0
I0
I0
I0
I0
I0
I0
I0
I0
I0
I0
I0
I0
I0
I0
I0
I0
I0
I0
I0
I0
I0
I0
I0
I0
I0
I0
I0
I0
I0
I0
I0
I0
I0
I0
I0
I0
I0
I0
I0
I0
I0
I0
I0
I0
I0
I0
I0
I0
I0
I0
I0
I0
I0
I0
I0
I0
I0
I0
I0
I0
I0
I0
I0
I0
I0
I0
I0
I0
I0
I0
I0
I0
I0
I0
I0
I0
I0
I0
I0
I0
I0
I0
I0
I0
I0
I0
I0
I0
I0
I0
I0
I0
I0
I0
I0
I0
I0
I0
I0
I0
I0
I0
I0
I0
I0
I0
I0
I0
I0
I0
I0
I0
I0
I0
I0
I0
I0
I0
I0
I0
I0
I0
I0
I0
I0
I0
I0
I0
I0
I0
I0
I0
I0
I0
I0
I0
I0
I0
I0
I0
I0
I0
I0
I0
I0
I0
I0
I0
I0
I0
I0
I0
I0
I0
I0
I0
I0
I0
I0
I0
I0
I0
I-1
I0
I0
I0
I0
I0
I0
I0
I0
I0
I0
I0
I0
I0
I0
I0
I0
I0
I0
I0
I0
I0
I0
I0
I0
I0
I0
I0
I0
I0
I0
I0
I0
I0
I0
I0
I0
I0
I0
I0
I0
I0
I0
I0
I0
I0
I0
I0
I0
I0
I0
I0
I0
I0
I0
I0
I0
I0
I0
I0
I0
I0
I0
I0
I0
I0
I0
I0
I0
I0
I0
I0
I0
I0
I0
I0
I0
I0
I0
I0
I0
I0
I0
I0
I0
I0
I0
I0
I0
I0
I0
I0
I0
I0
I0
I0
I0
I0
I0
I0
I0
I0
I0
I0
I0
I0
I0
I0
I0
I0
I0
I0
I0
I0
I0
I0
I0
I0
I0
I0
I0
I0
I0
I0
I0
I0
I0
I0
I0
I0
I0
I0
I0
I0
I0
I0
I0
I0
I0
I0
I0
I0
I0
I0
I0
I0
I0
I0
I0
I0
I0
I0
I0
I0
I0
I0
I0
I0
I0
I0
I0
I0
I0
I0
I0
I0
I0
I0
I0
I0
I0
I0
I0
I0
I0
I0
I0
I0
I0
I0
I0
I0
I0
I0
I0
I0
I0
I0
I0
I0
I0
I0
I0
I0
I0
I0
I0
I0
I0
I0
I0
I-1
I0
I0
I0
I0
I0
I0
I0
I0
I0
I0
I0
I0
I0
I0
I0
I0
I0
I0
I0
I0
I0
I0
I0
I0
I0
I0
I0
I0
I0
I0
I0
I0
I0
I0
I0
I0
I0
I0
I0
I0
I0
I0
I0
I0
I0
I0
I0
I0
I0
I0
I0
I0
I0
I0
I0
I0
I0
I0
I0
I0
I0
I0
I0
I0
I0
I0
I0
I0
I0
I0
I0
I0
I0
I0
I0
I0
I0
I0
I0
I0
I0
I0
I0
I0
I0
I0
I0
I0
I0
I0
I0
I0
I0
I0
I0
I0
I0
I0
I0
I0
I0
I0
I0
I0
I0
I0
I0
I0
I0
I0
I0
I0
I0
I0
I0
I0
I0
I0
I0
I0
I0
I0
I0
I0
I0
I0
I0
I0
I0
I0
I0
I0
I0
I0
I0
I0
I0
I0
I0
I0
I0
I0
I0
I0
I0
I0
I0
I0
I0
I0
I0
I0
I0
I0
I0
I0
I0
I0
I0
I0
I0
I0
I0
I0
I0
I0
I0
I0
I0
I0
I0
I0
I0
I0
I0
I0
I0
I0
I0
I0
I0
I0
I0
I0
I0
I0
I0
I0
I0
I0
I0
I0
I0
I0
I0
I0
I0
I0
I0
I0
I-1
I0
I0
I0
I0
I0
I0
I0
I0
I0
I0
I0
I0
I0
I0
I0
I0
I0
I0
I0
I0
I0
I0
I0
I0
I0
I0
I0
I0
I0
I0
I0
I0
I0
I0
I0
I0
I0
I0
I0
I0
I0
I0
I0
I0
I0
I0
I0
I0
I0
I0
I0
I0
I0
I0
I0
I0
I0
I0
I0
I0
I0
I0
I0
I0
I0
I0
I0
I0
I0
I0
I0
I0
I0
I0
I0
I0
I0
I0
I0
I0
I0
I0
I0
I0
I0
I0
I0
I0
I0
I0
I0
I0
I0
I0
I0
I0
I0
I0
I0
I0
I0
I0
I0
I0
I0
I0
I0
I0
I0
I0
I0
I0
I0
I0
I0
I0
I0
I0
I0
I0
I0
I0
I0
I0
I0
I0
I0
I0
I0
I0
I0
I0
I0
I0
I0
I0
I0
I0
I0
I0
I0
I0
I0
I0
I0
I0
I0
I0
I0
I0
I0
I0
I0
I0
I0
I0
I0
I0
I0
I0
I0
I0
I0
I0
I0
I0
I0
I0
I0
I0
I0
I0
I0
I0
I0
I0
I0
I0
I0
I0
I0
I0
I0
I0
I0
I0
I0
I0
I0
I0
I0
I0
I0
I0
I0
I0
I0
I0
I0
I0
I-1
I0
I0
I0
I0
I0
I0
I0
I0
I0
I0
I0
I0
I0
I0
I0
I0
I0
I0
I0
I0
I0
I0
I0
I0
I0
I0
I0
I0
I0
I0
I0
I0
I0
I0
I0
I0
I0
I0
I0
I0
I0
I0
I0
I0
I0
I0
I0
I0
I0
I0
I0
I0
I0
I0
I0
I0
I0
I0
I0
I0
I0
I0
I0
I0
I0
I0
I0
I0
I0
I0
I0
I0
I0
I0
I0
I0
I0
I0
I0
I0
I0
I0
I0
I0
I0
I0
I0
I0
I0
I0
I0
I0
I0
I0
I0
I0
I0
I0
I0
I0
I0
I0
I0
I0
I0
I0
I0
I0
I0
I0
I0
I0
I0
I0
I0
I0
I0
I0
I0
I0
I0
I0
I0
I0
I0
I0
I0
I0
I0
I0
I0
I0
I0
I0
I0
I0
I0
I0
I0
I0
I0
I0
I0
I0
I0
I0
I0
I0
I0
I0
I0
I0
I0
I0
I0
I0
I0
I0
I0
I0
I0
I0
I0
I0
I0
I0
I0
I0
I0
I0
I0
I0
I0
I0
I0
I0
I0
I0
I0
I0
I0
I0
I0
I0
I0
I0
I0
I0
I0
I0
I0
I0
I0
I0
I0
I0
I0
I0
I0
I0
I-1
I0
I0
I0
I0
I0
I0
I0
I0
I0
I0
I0
I0
I0
I0
I0
I0
I0
I0
I0
I0
I0
I0
I0
I0
I0
I0
I0
I0
I0
I0
I0
I0
I0
I0
I0
I0
I0
I0
I0
I0
I0
I0
I0
I0
I0
I0
I0
I0
I0
I0
I0
I0
I0
I0
I0
I0
I0
I0
I0
I0
I0
I0
I0
I0
I0
I0
I0
I0
I0
I0
I0
I0
I0
I0
I0
I0
I0
I0
I0
I0
I0
I0
I0
I0
I0
I0
I0
I0
I0
I0
I0
I0
I0
I0
I0
I0
I0
I0
I0
I0
I0
I0
I0
I0
I0
I0
I0
I0
I0
I0
I0
I0
I0
I0
I0
I0
I0
I0
I0
I0
I0
I0
I0
I0
I0
I0
I0
I0
I0
I0
I0
I0
I0
I0
I0
I0
I0
I0
I0
I0
I0
I0
I0
I0
I0
I0
I0
I0
I0
I0
I0
I0
I0
I0
I0
I0
I0
I0
I0
I0
I0
I0
I0
I0
I0
I0
I0
I0
I0
I0
I0
I0
I0
I0
I0
I0
I0
I0
I0
I0
I0
I0
I0
I0
I0
I0
I0
I0
I0
I0
I0
I0
I0
I0
I0
I0
I0
I0
I0
I0
I-1
I0
I0
I0
I0
I0
I0
I0
I0
I0
I0
I0
I0
I0
I0
I0
I0
I0
I0
I0
I0
I0
I0
I0
I0
I0
I0
I0
I0
I0
I0
I0
I0
I0
I0
I0
I0
I0
I0
I0
I0
I0
I0
I0
I0
I0
I0
I0
I0
I0
I0
I0
I0
I0
I0
I0
I0
I0
I0
I0
I0
I0
I0
I0
I0
I0
I0
I0
I0
I0
I0
I0
I0
I0
I0
I0
I0
I0
I0
I0
I0
I0
I0
I0
I0
I0
I0
I0
I0
I0
I0
I0
I0
I0
I0
I0
I0
I0
I0
I0
I0
I0
I0
I0
I0
I0
I0
I0
I0
I0
I0
I0
I0
I0
I0
I0
I0
I0
I0
I0
I0
I0
I0
I0
I0
I0
I0
I0
I0
I0
I0
I0
I0
I0
I0
I0
I0
I0
I0
I0
I0
I0
I0
I0
I0
I0
I0
I0
I0
I0
I0
I0
I0
I0
I0
I0
I0
I0
I0
I0
I0
I0
I0
I0
I0
I0
I0
I0
I0
I0
I0
I0
I0
I0
I0
I0
I0
I0
I0
I0
I0
I0
I0
I0
I0
I0
I0
I0
I0
I0
I0
I0
I0
I0
I0
I0
I0
I0
I0
I0
I0
I-1
I0
I0
I0
I0
I0
I0
I0
I0
I0
I0
I0
I0
I0
I0
I0
I0
I0
I0
I0
I0
I0
I0
I0
I0
I0
I0
I0
I0
I0
I0
I0
I0
I0
I0
I0
I0
I0
I0
I0
I0
I0
I0
I0
I0
I0
I0
I0
I0
I0
I0
I0
I0
I0
I0
I0
I0
I0
I0
I0
I0
I0
I0
I0
I0
I0
I0
I0
I0
I0
I0
I0
I0
I0
I0
I0
I0
I0
I0
I0
I0
I0
I0
I0
I0
I0
I0
I0
I0
I0
I0
I0
I0
I0
I0
I0
I0
I0
I0
I0
I0
I0
I0
I0
I0
I0
I0
I0
I0
I0
I0
I0
I0
I0
I0
I0
I0
I0
I0
I0
I0
I0
I0
I0
I0
I0
I0
I0
I0
I0
I0
I0
I0
I0
I0
I0
I0
I0
I0
I0
I0
I0
I0
I0
I0
I0
I0
I0
I0
I0
I0
I0
I0
I0
I0
I0
I0
I0
I0
I0
I0
I0
I0
I0
I0
I0
I0
I0
I0
I0
I0
I0
I0
I0
I0
I0
I0
I0
I0
I0
I0
I0
I0
I0
I0
I0
I0
I0
I0
I0
I0
I0
I0
I0
I0
I0
I0
I0
I0
I0
I0
I-1
I0
I0
I0
I0
I0
I0
I0
I0
I0
I0
I0
I0
I0
I0
I0
I0
I0
I0
I0
I0
I0
I0
I0
I0
I0
I0
I0
I0
I0
I0
I0
I0
I0
I0
I0
I0
I0
I0
I0
I0
I0
I0
I0
I0
I0
I0
I0
I0
I0
I0
I0
I0
I0
I0
I0
I0
I0
I0
I0
I0
I0
I0
I0
I0
I0
I0
I0
I0
I0
I0
I0
I0
I0
I0
I0
I0
I0
I0
I0
I0
I0
I0
I0
I0
I0
I0
I0
I0
I0
I0
I0
I0
I0
I0
I0
I0
I0
I0
I0
I0
I0
I0
I0
I0
I0
I0
I0
I0
I0
I0
I0
I0
I0
I0
I0
I0
I0
I0
I0
I0
I0
I0
I0
I0
I0
I0
I0
I0
I0
I0
I0
I0
I0
I0
I0
I0
I0
I0
I0
I0
I0
I0
I0
I0
I0
I0
I0
I0
I0
I0
I0
I0
I0
I0
I0
I0
I0
I0
I0
I0
I0
I0
I0
I0
I0
I0
I0
I0
I0
I0
I0
I0
I0
I0
I0
I0
I0
I0
I0
I0
I0
I0
I0
I0
I0
I0
I0
I0
I0
I0
I0
I0
I0
I0
I0
I0
I0
I0
I0
I0
I-1
I0
I0
I0
I0
I0
I0
I0
I0
I0
I0
I0
I0
I0
I0
I0
I0
I0
I0
I0
I0
I0
I0
I0
I0
I0
I0
I0
I0
I0
I0
I0
I0
I0
I0
I0
I0
I0
I0
I0
I0
I0
I0
I0
I0
I0
I0
I0
I0
I0
I0
I0
I0
I0
I0
I0
I0
I0
I0
I0
I0
I0
I0
I0
I0
I0
I0
I0
I0
I0
I0
I0
I0
I0
I0
I0
I0
I0
I0
I0
I0
I0
I0
I0
I0
I0
I0
I0
I0
I0
I0
I0
I0
I0
I0
I0
I100
I100
I100
I100
I100
I100
I100
I100
I100
I100
I0
I0
I0
I0
I0
I0
I0
I0
I0
I0
I0
I0
I0
I0
I0
I0
I0
I0
I0
I0
I0
I0
I0
I0
I0
I0
I0
I0
I0
I0
I0
I0
I0
I0
I0
I0
I0
I0
I0
I0
I0
I0
I0
I0
I0
I0
I0
I0
I0
I0
I0
I0
I0
I0
I0
I0
I0
I0
I0
I0
I0
I0
I0
I0
I0
I0
I0
I0
I0
I0
I0
I0
I0
I0
I0
I0
I0
I0
I0
I0
I0
I0
I0
I0
I0
I0
I0
I0
I0
I0
I0
I0
I0
I0
I0
I-1
I0
I0
I0
I0
I0
I0
I0
I0
I0
I0
I0
I0
I0
I0
I0
I0
I0
I0
I0
I0
I0
I0
I0
I0
I0
I0
I0
I0
I0
I0
I0
I0
I0
I0
I0
I0
I0
I0
I0
I0
I0
I0
I0
I0
I0
I0
I0
I0
I0
I0
I0
I0
I0
I0
I0
I0
I0
I0
I0
I0
I0
I0
I0
I0
I0
I0
I0
I0
I0
I0
I0
I0
I0
I0
I0
I0
I0
I0
I0
I0
I0
I0
I0
I0
I0
I0
I0
I0
I0
I0
I0
I0
I0
I0
I0
I100
I100
I100
I100
I100
I100
I100
I100
I100
I100
I100
I0
I0
I0
I0
I0
I0
I0
I0
I0
I0
I0
I0
I0
I0
I0
I0
I0
I0
I0
I0
I0
I0
I0
I0
I0
I0
I0
I0
I0
I0
I0
I0
I0
I0
I0
I0
I0
I0
I0
I0
I0
I0
I0
I0
I0
I0
I0
I0
I0
I0
I0
I0
I0
I0
I0
I0
I0
I0
I0
I0
I0
I0
I0
I0
I0
I0
I0
I0
I0
I0
I0
I0
I0
I0
I0
I0
I0
I0
I0
I0
I0
I0
I0
I0
I0
I0
I0
I0
I0
I0
I0
I0
I0
I0
I-1
I0
I0
I0
I0
I0
I0
I0
I0
I0
I0
I0
I0
I0
I0
I0
I0
I0
I0
I0
I0
I0
I0
I0
I0
I0
I0
I0
I0
I0
I0
I0
I0
I0
I0
I0
I0
I0
I0
I0
I0
I0
I0
I0
I0
I0
I0
I0
I0
I0
I0
I0
I0
I0
I0
I0
I0
I0
I0
I0
I0
I0
I0
I0
I0
I0
I0
I0
I0
I0
I0
I0
I0
I0
I0
I0
I0
I0
I0
I0
I0
I0
I0
I0
I0
I0
I0
I0
I0
I0
I0
I0
I0
I0
I0
I0
I100
I100
I100
I100
I100
I100
I100
I100
I100
I100
I100
I0
I0
I0
I0
I0
I0
I0
I0
I0
I0
I0
I0
I0
I0
I0
I0
I0
I0
I0
I0
I0
I0
I0
I0
I0
I0
I0
I0
I0
I0
I0
I0
I0
I0
I0
I0
I0
I0
I0
I0
I0
I0
I0
I0
I0
I0
I0
I0
I0
I0
I0
I0
I0
I0
I0
I0
I0
I0
I0
I0
I0
I0
I0
I0
I0
I0
I0
I0
I0
I0
I0
I0
I0
I0
I0
I0
I0
I0
I0
I0
I0
I0
I0
I0
I0
I0
I0
I0
I0
I0
I0
I0
I0
I0
I-1
I0
I0
I0
I0
I0
I0
I0
I0
I0
I0
I0
I0
I0
I0
I0
I0
I0
I0
I0
I0
I0
I0
I0
I0
I0
I0
I0
I0
I0
I0
I0
I0
I0
I0
I0
I0
I0
I0
I0
I0
I0
I0
I0
I0
I0
I0
I0
I0
I0
I0
I0
I0
I0
I0
I0
I0
I0
I0
I0
I0
I0
I0
I0
I0
I0
I0
I0
I0
I0
I0
I0
I0
I0
I0
I0
I0
I0
I0
I0
I0
I0
I0
I0
I0
I0
I0
I0
I0
I0
I0
I0
I0
I0
I0
I0
I100
I100
I100
I100
I100
I100
I100
I100
I100
I100
I100
I0
I0
I0
I0
I0
I0
I0
I0
I0
I0
I0
I0
I0
I0
I0
I0
I0
I0
I0
I0
I0
I0
I0
I0
I0
I0
I0
I0
I0
I0
I0
I0
I0
I0
I0
I0
I0
I0
I0
I0
I0
I0
I0
I0
I0
I0
I0
I0
I0
I0
I0
I0
I0
I0
I0
I0
I0
I0
I0
I0
I0
I0
I0
I0
I0
I0
I0
I0
I0
I0
I0
I0
I0
I0
I0
I0
I0
I0
I0
I0
I0
I0
I0
I0
I0
I0
I0
I0
I0
I0
I0
I0
I0
I0
I-1
I0
I0
I0
I0
I0
I0
I0
I0
I0
I0
I0
I0
I0
I0
I0
I0
I0
I0
I0
I0
I0
I0
I0
I0
I0
I0
I0
I0
I0
I0
I0
I0
I0
I0
I0
I0
I0
I0
I0
I0
I0
I0
I0
I0
I0
I0
I0
I0
I0
I0
I0
I0
I0
I0
I0
I0
I0
I0
I0
I0
I0
I0
I0
I0
I0
I0
I0
I0
I0
I0
I0
I0
I0
I0
I0
I0
I0
I0
I0
I0
I0
I0
I0
I0
I0
I0
I0
I0
I0
I0
I0
I0
I0
I0
I0
I100
I100
I100
I100
I100
I100
I100
I100
I100
I100
I100
I0
I0
I0
I0
I0
I0
I0
I0
I0
I0
I0
I0
I0
I0
I0
I0
I0
I0
I0
I0
I0
I0
I0
I0
I0
I0
I0
I0
I0
I0
I0
I0
I0
I0
I0
I0
I0
I0
I0
I0
I0
I0
I0
I0
I0
I0
I0
I0
I0
I0
I0
I0
I0
I0
I0
I0
I0
I0
I0
I0
I0
I0
I0
I0
I0
I0
I0
I0
I0
I0
I0
I0
I0
I0
I0
I0
I0
I0
I0
I0
I0
I0
I0
I0
I0
I0
I0
I0
I0
I0
I0
I0
I0
I0
I-1
I0
I0
I0
I0
I0
I0
I0
I0
I0
I0
I0
I0
I0
I0
I0
I0
I0
I0
I0
I0
I0
I0
I0
I0
I0
I0
I0
I0
I0
I0
I0
I0
I0
I0
I0
I0
I0
I0
I0
I0
I0
I0
I0
I0
I0
I0
I0
I0
I0
I0
I0
I0
I0
I0
I0
I0
I0
I0
I0
I0
I0
I0
I0
I0
I0
I0
I0
I0
I0
I0
I0
I0
I0
I0
I0
I0
I0
I0
I0
I0
I0
I0
I0
I0
I0
I0
I0
I0
I0
I0
I0
I0
I0
I0
I0
I100
I100
I100
I100
I100
I100
I100
I100
I100
I100
I100
I0
I0
I0
I0
I0
I0
I0
I0
I0
I0
I0
I0
I0
I0
I0
I0
I0
I0
I0
I0
I0
I0
I0
I0
I0
I0
I0
I0
I0
I0
I0
I0
I0
I0
I0
I0
I0
I0
I0
I0
I0
I0
I0
I0
I0
I0
I0
I0
I0
I0
I0
I0
I0
I0
I0
I0
I0
I0
I0
I0
I0
I0
I0
I0
I0
I0
I0
I0
I0
I0
I0
I0
I0
I0
I0
I0
I0
I0
I0
I0
I0
I0
I0
I0
I0
I0
I0
I0
I0
I0
I0
I0
I0
I0
I-1
I0
I0
I0
I0
I0
I0
I0
I0
I0
I0
I0
I0
I0
I0
I0
I0
I0
I0
I0
I0
I0
I0
I0
I0
I0
I0
I0
I0
I0
I0
I0
I0
I0
I0
I0
I0
I0
I0
I0
I0
I0
I0
I0
I0
I0
I0
I0
I0
I0
I0
I0
I0
I0
I0
I0
I0
I0
I0
I0
I0
I0
I0
I0
I0
I0
I0
I0
I0
I0
I0
I0
I0
I0
I0
I0
I0
I0
I0
I0
I0
I0
I0
I0
I0
I0
I0
I0
I0
I0
I0
I0
I0
I0
I0
I0
I100
I100
I100
I100
I100
I100
I100
I100
I100
I100
I100
I0
I0
I0
I0
I0
I0
I0
I0
I0
I0
I0
I0
I0
I0
I0
I0
I0
I0
I0
I0
I0
I0
I0
I0
I0
I0
I0
I0
I0
I0
I0
I0
I0
I0
I0
I0
I0
I0
I0
I0
I0
I0
I0
I0
I0
I0
I0
I0
I0
I0
I0
I0
I0
I0
I0
I0
I0
I0
I0
I0
I0
I0
I0
I0
I0
I0
I0
I0
I0
I0
I0
I0
I0
I0
I0
I0
I0
I0
I0
I0
I0
I0
I0
I0
I0
I0
I0
I0
I0
I0
I0
I0
I0
I0
I-1
I0
I0
I0
I0
I0
I0
I0
I0
I0
I0
I0
I0
I0
I0
I0
I0
I0
I0
I0
I0
I0
I0
I0
I0
I0
I0
I0
I0
I0
I0
I0
I0
I0
I0
I0
I0
I0
I0
I0
I0
I0
I0
I0
I0
I0
I0
I0
I0
I0
I0
I0
I0
I0
I0
I0
I0
I0
I0
I0
I0
I0
I0
I0
I0
I0
I0
I0
I0
I0
I0
I0
I0
I0
I0
I0
I0
I0
I0
I0
I0
I0
I0
I0
I0
I0
I0
I0
I0
I0
I0
I0
I0
I0
I0
I0
I100
I100
I100
I100
I100
I100
I100
I100
I100
I100
I100
I0
I0
I0
I0
I0
I0
I0
I0
I0
I0
I0
I0
I0
I0
I0
I0
I0
I0
I0
I0
I0
I0
I0
I0
I0
I0
I0
I0
I0
I0
I0
I0
I0
I0
I0
I0
I0
I0
I0
I0
I0
I0
I0
I0
I0
I0
I0
I0
I0
I0
I0
I0
I0
I0
I0
I0
I0
I0
I0
I0
I0
I0
I0
I0
I0
I0
I0
I0
I0
I0
I0
I0
I0
I0
I0
I0
I0
I0
I0
I0
I0
I0
I0
I0
I0
I0
I0
I0
I0
I0
I0
I0
I0
I0
I-1
I0
I0
I0
I0
I0
I0
I0
I0
I0
I0
I0
I0
I0
I0
I0
I0
I0
I0
I0
I0
I0
I0
I0
I0
I0
I0
I0
I0
I0
I0
I0
I0
I0
I0
I0
I0
I0
I0
I0
I0
I0
I0
I0
I0
I0
I0
I0
I0
I0
I0
I0
I0
I0
I0
I0
I0
I0
I0
I0
I0
I0
I0
I0
I0
I0
I0
I0
I0
I0
I0
I0
I0
I0
I0
I0
I0
I0
I0
I0
I0
I0
I0
I0
I0
I0
I0
I0
I0
I0
I0
I0
I0
I0
I0
I0
I100
I100
I100
I100
I100
I100
I100
I100
I100
I100
I100
I0
I0
I0
I0
I0
I0
I0
I0
I0
I0
I0
I0
I0
I0
I0
I0
I0
I0
I0
I0
I0
I0
I0
I0
I0
I0
I0
I0
I0
I0
I0
I0
I0
I0
I0
I0
I0
I0
I0
I0
I0
I0
I0
I0
I0
I0
I0
I0
I0
I0
I0
I0
I0
I0
I0
I0
I0
I0
I0
I0
I0
I0
I0
I0
I0
I0
I0
I0
I0
I0
I0
I0
I0
I0
I0
I0
I0
I0
I0
I0
I0
I0
I0
I0
I0
I0
I0
I0
I0
I0
I0
I0
I0
I0
I-1
I0
I0
I0
I0
I0
I0
I0
I0
I0
I0
I0
I0
I0
I0
I0
I0
I0
I0
I0
I0
I0
I0
I0
I0
I0
I0
I0
I0
I0
I0
I0
I0
I0
I0
I0
I0
I0
I0
I0
I0
I0
I0
I0
I0
I0
I0
I0
I0
I0
I0
I0
I0
I0
I0
I0
I0
I0
I0
I0
I0
I0
I0
I0
I0
I0
I0
I0
I0
I0
I0
I0
I0
I0
I0
I0
I0
I0
I0
I0
I0
I0
I0
I0
I0
I0
I0
I0
I0
I0
I0
I0
I0
I0
I0
I0
I100
I100
I100
I100
I100
I100
I100
I100
I100
I100
I100
I0
I0
I0
I0
I0
I0
I0
I0
I0
I0
I0
I0
I0
I0
I0
I0
I0
I0
I0
I0
I0
I0
I0
I0
I0
I0
I0
I0
I0
I0
I0
I0
I0
I0
I0
I0
I0
I0
I0
I0
I0
I0
I0
I0
I0
I0
I0
I0
I0
I0
I0
I0
I0
I0
I0
I0
I0
I0
I0
I0
I0
I0
I0
I0
I0
I0
I0
I0
I0
I0
I0
I0
I0
I0
I0
I0
I0
I0
I0
I0
I0
I0
I0
I0
I0
I0
I0
I0
I0
I0
I0
I0
I0
I0
I-1
I0
I0
I0
I0
I0
I0
I0
I0
I0
I0
I0
I0
I0
I0
I0
I0
I0
I0
I0
I0
I0
I0
I0
I0
I0
I0
I0
I0
I0
I0
I0
I0
I0
I0
I0
I0
I0
I0
I0
I0
I0
I0
I0
I0
I0
I0
I0
I0
I0
I0
I0
I0
I0
I0
I0
I0
I0
I0
I0
I0
I0
I0
I0
I0
I0
I0
I0
I0
I0
I0
I0
I0
I0
I0
I0
I0
I0
I0
I0
I0
I0
I0
I0
I0
I0
I0
I0
I0
I0
I0
I0
I0
I0
I0
I0
I100
I100
I100
I100
I100
I100
I100
I100
I100
I100
I100
I0
I0
I0
I0
I0
I0
I0
I0
I0
I0
I0
I0
I0
I0
I0
I0
I0
I0
I0
I0
I0
I0
I0
I0
I0
I0
I0
I0
I0
I0
I0
I0
I0
I0
I0
I0
I0
I0
I0
I0
I0
I0
I0
I0
I0
I0
I0
I0
I0
I0
I0
I0
I0
I0
I0
I0
I0
I0
I0
I0
I0
I0
I0
I0
I0
I0
I0
I0
I0
I0
I0
I0
I0
I0
I0
I0
I0
I0
I0
I0
I0
I0
I0
I0
I0
I0
I0
I0
I0
I0
I0
I0
I0
I0
I-1
I0
I0
I0
I0
I0
I0
I0
I0
I0
I0
I0
I0
I0
I0
I0
I0
I0
I0
I0
I0
I0
I0
I0
I0
I0
I0
I0
I0
I0
I0
I0
I0
I0
I0
I0
I0
I0
I0
I0
I0
I0
I0
I0
I0
I0
I0
I0
I0
I0
I0
I0
I0
I0
I0
I0
I0
I0
I0
I0
I0
I0
I0
I0
I0
I0
I0
I0
I0
I0
I0
I0
I0
I0
I0
I0
I0
I0
I0
I0
I0
I0
I0
I0
I0
I0
I0
I0
I0
I0
I0
I0
I0
I0
I0
I0
I0
I0
I0
I0
I0
I0
I0
I0
I0
I0
I0
I0
I0
I0
I0
I0
I0
I0
I0
I0
I0
I0
I0
I0
I0
I0
I0
I0
I0
I0
I0
I0
I0
I0
I0
I0
I0
I0
I0
I0
I0
I0
I0
I0
I0
I0
I0
I0
I0
I0
I0
I0
I0
I0
I0
I0
I0
I0
I0
I0
I0
I0
I0
I0
I0
I0
I0
I0
I0
I0
I0
I0
I0
I0
I0
I0
I0
I0
I0
I0
I0
I0
I0
I0
I0
I0
I0
I0
I0
I0
I0
I0
I0
I0
I0
I0
I0
I0
I0
I0
I0
I0
I0
I0
I0
I-1
I0
I0
I0
I0
I0
I0
I0
I0
I0
I0
I0
I0
I0
I0
I0
I0
I0
I0
I0
I0
I0
I0
I0
I0
I0
I0
I0
I0
I0
I0
I0
I0
I0
I0
I0
I0
I0
I0
I0
I0
I0
I0
I0
I0
I0
I0
I0
I0
I0
I0
I0
I0
I0
I0
I0
I0
I0
I0
I0
I0
I0
I0
I0
I0
I0
I0
I0
I0
I0
I0
I0
I0
I0
I0
I0
I0
I0
I0
I0
I0
I0
I0
I0
I0
I0
I0
I0
I0
I0
I0
I0
I0
I0
I0
I0
I0
I0
I0
I0
I0
I0
I0
I0
I0
I0
I0
I0
I0
I0
I0
I0
I0
I0
I0
I0
I0
I0
I0
I0
I0
I0
I0
I0
I0
I0
I0
I0
I0
I0
I0
I0
I0
I0
I0
I0
I0
I0
I0
I0
I0
I0
I0
I0
I0
I0
I0
I0
I0
I0
I0
I0
I0
I0
I0
I0
I0
I0
I0
I0
I0
I0
I0
I0
I0
I0
I0
I0
I0
I0
I0
I0
I0
I0
I0
I0
I0
I0
I0
I0
I0
I0
I0
I0
I0
I0
I0
I0
I0
I0
I0
I0
I0
I0
I0
I0
I0
I0
I0
I0
I0
I-1
I0
I0
I0
I0
I0
I0
I0
I0
I0
I0
I0
I0
I0
I0
I0
I0
I0
I0
I0
I0
I0
I0
I0
I0
I0
I0
I0
I0
I0
I0
I0
I0
I0
I0
I0
I0
I0
I0
I0
I0
I0
I0
I0
I0
I0
I0
I0
I0
I0
I0
I0
I0
I0
I0
I0
I0
I0
I0
I0
I0
I0
I0
I0
I0
I0
I0
I0
I0
I0
I0
I0
I0
I0
I0
I0
I0
I0
I0
I0
I0
I0
I0
I0
I0
I0
I0
I0
I0
I0
I0
I0
I0
I0
I0
I0
I0
I0
I0
I0
I0
I0
I0
I0
I0
I0
I0
I0
I0
I0
I0
I0
I0
I0
I0
I0
I0
I0
I0
I0
I0
I0
I0
I0
I0
I0
I0
I0
I0
I0
I0
I0
I0
I0
I0
I0
I0
I0
I0
I0
I0
I0
I0
I0
I0
I0
I0
I0
I0
I0
I0
I0
I0
I0
I0
I0
I0
I0
I0
I0
I0
I0
I0
I0
I0
I0
I0
I0
I0
I0
I0
I0
I0
I0
I0
I0
I0
I0
I0
I0
I0
I0
I0
I0
I0
I0
I0
I0
I0
I0
I0
I0
I0
I0
I0
I0
I0
I0
I0
I0
I0
I-1
I0
I0
I0
I0
I0
I0
I0
I0
I0
I0
I0
I0
I0
I0
I0
I0
I0
I0
I0
I0
I0
I0
I0
I0
I0
I0
I0
I0
I0
I0
I0
I0
I0
I0
I0
I0
I0
I0
I0
I0
I0
I0
I0
I0
I0
I0
I0
I0
I0
I0
I0
I0
I0
I0
I0
I0
I0
I0
I0
I0
I0
I0
I0
I0
I0
I0
I0
I0
I0
I0
I0
I0
I0
I0
I0
I0
I0
I0
I0
I0
I0
I0
I0
I0
I0
I0
I0
I0
I0
I0
I0
I0
I0
I0
I0
I0
I0
I0
I0
I0
I0
I0
I0
I0
I0
I0
I0
I0
I0
I0
I0
I0
I0
I0
I0
I0
I0
I0
I0
I0
I0
I0
I0
I0
I0
I0
I0
I0
I0
I0
I0
I0
I0
I0
I0
I0
I0
I0
I0
I0
I0
I0
I0
I0
I0
I0
I0
I0
I0
I0
I0
I0
I0
I0
I0
I0
I0
I0
I0
I0
I0
I0
I0
I0
I0
I0
I0
I0
I0
I0
I0
I0
I0
I0
I0
I0
I0
I0
I0
I0
I0
I0
I0
I0
I0
I0
I0
I0
I0
I0
I0
I0
I0
I0
I0
I0
I0
I0
I0
I0
I-1
I0
I0
I0
I0
I0
I0
I0
I0
I0
I0
I0
I0
I0
I0
I0
I0
I0
I0
I0
I0
I0
I0
I0
I0
I0
I0
I0
I0
I0
I0
I0
I0
I0
I0
I0
I0
I0
I0
I0
I0
I0
I0
I0
I0
I0
I0
I0
I0
I0
I0
I0
I0
I0
I0
I0
I0
I0
I0
I0
I0
I0
I0
I0
I0
I0
I0
I0
I0
I0
I0
I0
I0
I0
I0
I0
I0
I0
I0
I0
I0
I0
I0
I0
I0
I0
I0
I0
I0
I0
I0
I0
I0
I0
I0
I0
I0
I0
I0
I0
I0
I0
I0
I0
I0
I0
I0
I0
I0
I0
I0
I0
I0
I0
I0
I0
I0
I0
I0
I0
I0
I0
I0
I0
I0
I0
I0
I0
I0
I0
I0
I0
I0
I0
I0
I0
I0
I0
I0
I0
I0
I0
I0
I0
I0
I0
I0
I0
I0
I0
I0
I0
I0
I0
I0
I0
I0
I0
I0
I0
I0
I0
I0
I0
I0
I0
I0
I0
I0
I0
I0
I0
I0
I0
I0
I0
I0
I0
I0
I0
I0
I0
I0
I0
I0
I0
I0
I0
I0
I0
I0
I0
I0
I0
I0
I0
I0
I0
I0
I0
I0
I-1
I0
I0
I0
I0
I0
I0
I0
I0
I0
I0
I0
I0
I0
I0
I0
I0
I0
I0
I0
I0
I0
I0
I0
I0
I0
I0
I0
I0
I0
I0
I0
I0
I0
I0
I0
I0
I0
I0
I0
I0
I0
I0
I0
I0
I0
I0
I0
I0
I0
I0
I0
I0
I0
I0
I0
I0
I0
I0
I0
I0
I0
I0
I0
I0
I0
I0
I0
I0
I0
I0
I0
I0
I0
I0
I0
I0
I0
I0
I0
I0
I0
I0
I0
I0
I0
I0
I0
I0
I0
I0
I0
I0
I0
I0
I0
I0
I0
I0
I0
I0
I0
I0
I0
I0
I0
I0
I0
I0
I0
I0
I0
I0
I0
I0
I0
I0
I0
I0
I0
I0
I0
I0
I0
I0
I0
I0
I0
I0
I0
I0
I0
I0
I0
I0
I0
I0
I0
I0
I0
I0
I0
I0
I0
I0
I0
I0
I0
I0
I0
I0
I0
I0
I0
I0
I0
I0
I0
I0
I0
I0
I0
I0
I0
I0
I0
I0
I0
I0
I0
I0
I0
I0
I0
I0
I0
I0
I0
I0
I0
I0
I0
I0
I0
I0
I0
I0
I0
I0
I0
I0
I0
I0
I0
I0
I0
I0
I0
I0
I0
I0
I-1
I0
I0
I0
I0
I0
I0
I0
I0
I0
I0
I0
I0
I0
I0
I0
I0
I0
I0
I0
I0
I0
I0
I0
I0
I0
I0
I0
I0
I0
I0
I0
I0
I0
I0
I0
I0
I0
I0
I0
I0
I0
I0
I0
I0
I0
I0
I0
I0
I0
I0
I0
I0
I0
I0
I0
I0
I0
I0
I0
I0
I0
I0
I0
I0
I0
I0
I0
I0
I0
I0
I0
I0
I0
I0
I0
I0
I0
I0
I0
I0
I0
I0
I0
I0
I0
I0
I0
I0
I0
I0
I0
I0
I0
I0
I0
I0
I0
I0
I0
I0
I0
I0
I0
I0
I0
I0
I0
I0
I0
I0
I0
I0
I0
I0
I0
I0
I0
I0
I0
I0
I0
I0
I0
I0
I0
I0
I0
I0
I0
I0
I0
I0
I0
I0
I0
I0
I0
I0
I0
I0
I0
I0
I0
I0
I0
I0
I0
I0
I0
I0
I0
I0
I0
I0
I0
I0
I0
I0
I0
I0
I0
I0
I0
I0
I0
I0
I0
I0
I0
I0
I0
I0
I0
I0
I0
I0
I0
I0
I0
I0
I0
I0
I0
I0
I0
I0
I0
I0
I0
I0
I0
I0
I0
I0
I0
I0
I0
I0
I0
I0
I-1
I0
I0
I0
I0
I0
I0
I0
I0
I0
I0
I0
I0
I0
I0
I0
I0
I0
I0
I0
I0
I0
I0
I0
I0
I0
I0
I0
I0
I0
I0
I0
I0
I0
I0
I0
I0
I0
I0
I0
I0
I0
I0
I0
I0
I0
I0
I0
I0
I0
I0
I0
I0
I0
I0
I0
I0
I0
I0
I0
I0
I0
I0
I0
I0
I0
I0
I0
I0
I0
I0
I0
I0
I0
I0
I0
I0
I0
I0
I0
I0
I0
I0
I0
I0
I0
I0
I0
I0
I0
I0
I0
I0
I0
I0
I0
I0
I0
I0
I0
I0
I0
I0
I0
I0
I0
I0
I0
I0
I0
I0
I0
I0
I0
I0
I0
I0
I0
I0
I0
I0
I0
I0
I0
I0
I0
I0
I0
I0
I0
I0
I0
I0
I0
I0
I0
I0
I0
I0
I0
I0
I0
I0
I0
I0
I0
I0
I0
I0
I0
I0
I0
I0
I0
I0
I0
I0
I0
I0
I0
I0
I0
I0
I0
I0
I0
I0
I0
I0
I0
I0
I0
I0
I0
I0
I0
I0
I0
I0
I0
I0
I0
I0
I0
I0
I0
I0
I0
I0
I0
I0
I0
I0
I0
I0
I0
I0
I0
I0
I0
I0
I-1
I0
I0
I0
I0
I0
I0
I0
I0
I0
I0
I0
I0
I0
I0
I0
I0
I0
I0
I0
I0
I0
I0
I0
I0
I0
I0
I0
I0
I0
I0
I0
I0
I0
I0
I0
I0
I0
I0
I0
I0
I0
I0
I0
I0
I0
I0
I0
I0
I0
I0
I0
I0
I0
I0
I0
I0
I0
I0
I0
I0
I0
I0
I0
I0
I0
I0
I0
I0
I0
I0
I0
I0
I0
I0
I0
I0
I0
I0
I0
I0
I0
I0
I0
I0
I0
I0
I0
I0
I0
I0
I0
I0
I0
I0
I0
I0
I0
I0
I0
I0
I0
I0
I0
I0
I0
I0
I0
I0
I0
I0
I0
I0
I0
I0
I0
I0
I0
I0
I0
I0
I0
I0
I0
I0
I0
I0
I0
I0
I0
I0
I0
I0
I0
I0
I0
I0
I0
I0
I0
I0
I0
I0
I0
I0
I0
I0
I0
I0
I0
I0
I0
I0
I0
I0
I0
I0
I0
I0
I0
I0
I0
I0
I0
I0
I0
I0
I0
I0
I0
I0
I0
I0
I0
I0
I0
I0
I0
I0
I0
I0
I0
I0
I0
I0
I0
I0
I0
I0
I0
I0
I0
I0
I0
I0
I0
I0
I0
I0
I0
I0
I-1
I0
I0
I0
I0
I0
I0
I0
I0
I0
I0
I0
I0
I0
I0
I0
I0
I0
I0
I0
I0
I0
I0
I0
I0
I0
I0
I0
I0
I0
I0
I0
I0
I0
I0
I0
I0
I0
I0
I0
I0
I0
I0
I0
I0
I0
I0
I0
I0
I0
I0
I0
I0
I0
I0
I0
I0
I0
I0
I0
I0
I0
I0
I0
I0
I0
I0
I0
I0
I0
I0
I0
I0
I0
I0
I0
I0
I0
I0
I0
I0
I0
I0
I0
I0
I0
I0
I0
I0
I0
I0
I0
I0
I0
I0
I0
I0
I0
I0
I0
I0
I0
I0
I0
I0
I0
I0
I0
I0
I0
I0
I0
I0
I0
I0
I0
I0
I0
I0
I0
I0
I0
I0
I0
I0
I0
I0
I0
I0
I0
I0
I0
I0
I0
I0
I0
I0
I0
I0
I0
I0
I0
I0
I0
I0
I0
I0
I0
I0
I0
I0
I0
I0
I0
I0
I0
I0
I0
I0
I0
I0
I0
I0
I0
I0
I0
I0
I0
I0
I0
I0
I0
I0
I0
I0
I0
I0
I0
I0
I0
I0
I0
I0
I0
I0
I0
I0
I0
I0
I0
I0
I0
I0
I0
I0
I0
I0
I0
I0
I0
I0
I-1
I0
I0
I0
I0
I0
I0
I0
I0
I0
I0
I0
I0
I0
I0
I0
I0
I0
I0
I0
I0
I0
I0
I0
I0
I0
I0
I0
I0
I0
I0
I0
I0
I0
I0
I0
I0
I0
I0
I0
I0
I0
I0
I0
I0
I0
I0
I0
I0
I0
I0
I0
I0
I0
I0
I0
I0
I0
I0
I0
I0
I0
I0
I0
I0
I0
I0
I0
I0
I0
I0
I0
I0
I0
I0
I0
I0
I0
I0
I0
I0
I0
I0
I0
I0
I0
I0
I0
I0
I0
I0
I0
I0
I0
I0
I0
I0
I0
I0
I0
I0
I0
I0
I0
I0
I0
I0
I0
I0
I0
I0
I0
I0
I0
I0
I0
I0
I0
I0
I0
I0
I0
I0
I0
I0
I0
I0
I0
I0
I0
I0
I0
I0
I0
I0
I0
I0
I0
I0
I0
I0
I0
I0
I0
I0
I0
I0
I0
I0
I0
I0
I0
I0
I0
I0
I0
I0
I0
I0
I0
I0
I0
I0
I0
I0
I0
I0
I0
I0
I0
I0
I0
I0
I0
I0
I0
I0
I0
I0
I0
I0
I0
I0
I0
I0
I0
I0
I0
I0
I0
I0
I0
I0
I0
I0
I0
I0
I0
I0
I0
I0
I-1
I0
I0
I0
I0
I0
I0
I0
I0
I0
I0
I0
I0
I0
I0
I0
I0
I0
I0
I0
I0
I0
I0
I0
I0
I0
I0
I0
I0
I0
I0
I0
I0
I0
I0
I0
I0
I0
I0
I0
I0
I0
I0
I0
I0
I0
I0
I0
I0
I0
I0
I0
I0
I0
I0
I0
I0
I0
I0
I0
I0
I0
I0
I0
I0
I0
I0
I0
I0
I0
I0
I0
I0
I0
I0
I0
I0
I0
I0
I0
I0
I0
I0
I0
I0
I0
I0
I0
I0
I0
I0
I0
I0
I0
I0
I0
I0
I0
I0
I0
I0
I0
I0
I0
I0
I0
I0
I0
I0
I0
I0
I0
I0
I0
I0
I0
I0
I0
I0
I0
I0
I0
I0
I0
I0
I0
I0
I0
I0
I0
I0
I0
I0
I0
I0
I0
I0
I0
I0
I0
I0
I0
I0
I0
I0
I0
I0
I0
I0
I0
I0
I0
I0
I0
I0
I0
I0
I0
I0
I0
I0
I0
I0
I0
I0
I0
I0
I0
I0
I0
I0
I0
I0
I0
I0
I0
I0
I0
I0
I0
I0
I0
I0
I0
I0
I0
I0
I0
I0
I0
I0
I0
I0
I0
I0
I0
I0
I0
I0
I0
I0
I-1
I0
I0
I0
I0
I0
I0
I0
I0
I0
I0
I0
I0
I0
I0
I0
I0
I0
I0
I0
I0
I0
I0
I0
I0
I0
I0
I0
I0
I0
I0
I0
I0
I0
I0
I0
I0
I0
I0
I0
I0
I0
I0
I0
I0
I0
I0
I0
I0
I0
I0
I0
I0
I0
I0
I0
I0
I0
I0
I0
I0
I0
I0
I0
I0
I0
I0
I0
I0
I0
I0
I0
I0
I0
I0
I0
I0
I0
I0
I0
I0
I0
I0
I0
I0
I0
I0
I0
I0
I0
I0
I0
I0
I0
I0
I0
I0
I0
I0
I0
I0
I0
I0
I0
I0
I0
I0
I0
I0
I0
I0
I0
I0
I0
I0
I0
I0
I0
I0
I0
I0
I0
I0
I0
I0
I0
I0
I0
I0
I0
I0
I0
I0
I0
I0
I0
I0
I0
I0
I0
I0
I0
I0
I0
I0
I0
I0
I0
I0
I0
I0
I0
I0
I0
I0
I0
I0
I0
I0
I0
I0
I0
I0
I0
I0
I0
I0
I0
I0
I0
I0
I0
I0
I0
I0
I0
I0
I0
I0
I0
I0
I0
I0
I0
I0
I0
I0
I0
I0
I0
I0
I0
I0
I0
I0
I0
I0
I0
I0
I0
I0
I-1
I0
I0
I0
I0
I0
I0
I0
I0
I0
I0
I0
I0
I0
I0
I0
I0
I0
I0
I0
I0
I0
I0
I0
I0
I0
I0
I0
I0
I0
I0
I0
I0
I0
I0
I0
I0
I0
I0
I0
I0
I0
I0
I0
I0
I0
I0
I0
I0
I0
I0
I0
I0
I0
I0
I0
I0
I0
I0
I0
I0
I0
I0
I0
I0
I0
I0
I0
I0
I0
I0
I0
I0
I0
I0
I0
I0
I0
I0
I0
I0
I0
I0
I0
I0
I0
I0
I0
I0
I0
I0
I0
I0
I0
I0
I0
I0
I0
I0
I0
I0
I0
I0
I0
I0
I0
I0
I0
I0
I0
I0
I0
I0
I0
I0
I0
I0
I0
I0
I0
I0
I0
I0
I0
I0
I0
I0
I0
I0
I0
I0
I0
I0
I0
I0
I0
I0
I0
I0
I0
I0
I0
I0
I0
I0
I0
I0
I0
I0
I0
I0
I0
I0
I0
I0
I0
I0
I0
I0
I0
I0
I0
I0
I0
I0
I0
I0
I0
I0
I0
I0
I0
I0
I0
I0
I0
I0
I0
I0
I0
I0
I0
I0
I0
I0
I0
I0
I0
I0
I0
I0
I0
I0
I0
I0
I0
I0
I0
I0
I0
I0
I-1
I0
I0
I0
I0
I0
I0
I0
I0
I0
I0
I0
I0
I0
I0
I0
I0
I0
I0
I0
I0
I0
I0
I0
I0
I0
I0
I0
I0
I0
I0
I0
I0
I0
I0
I0
I0
I0
I0
I0
I0
I0
I0
I0
I0
I0
I0
I0
I0
I0
I0
I0
I0
I0
I0
I0
I0
I0
I0
I0
I0
I0
I0
I0
I0
I0
I0
I0
I0
I0
I0
I0
I0
I0
I0
I0
I0
I0
I0
I0
I0
I0
I0
I0
I0
I0
I0
I0
I0
I0
I0
I0
I0
I0
I0
I0
I0
I0
I0
I0
I0
I0
I0
I0
I0
I0
I0
I0
I0
I0
I0
I0
I0
I0
I0
I0
I0
I0
I0
I0
I0
I0
I0
I0
I0
I0
I0
I0
I0
I0
I0
I0
I0
I0
I0
I0
I0
I0
I0
I0
I0
I0
I0
I0
I0
I0
I0
I0
I0
I0
I0
I0
I0
I0
I0
I0
I0
I0
I0
I0
I0
I0
I0
I0
I0
I0
I0
I0
I0
I0
I0
I0
I0
I0
I0
I0
I0
I0
I0
I0
I0
I0
I0
I0
I0
I0
I0
I0
I0
I0
I0
I0
I0
I0
I0
I0
I0
I0
I0
I0
I0
I-1
I0
I0
I0
I0
I0
I0
I0
I0
I0
I0
I0
I0
I0
I0
I0
I0
I0
I0
I0
I0
I0
I0
I0
I0
I0
I0
I0
I0
I0
I0
I0
I0
I0
I0
I0
I0
I0
I0
I0
I0
I0
I0
I0
I0
I0
I0
I0
I0
I0
I0
I0
I0
I0
I0
I0
I0
I0
I0
I0
I0
I0
I0
I0
I0
I0
I0
I0
I0
I0
I0
I0
I0
I0
I0
I0
I0
I0
I0
I0
I0
I0
I0
I0
I0
I0
I0
I0
I0
I0
I0
I0
I0
I0
I0
I0
I0
I0
I0
I0
I0
I0
I0
I0
I0
I0
I0
I0
I0
I0
I0
I0
I0
I0
I0
I0
I0
I0
I0
I0
I0
I0
I0
I0
I0
I0
I0
I0
I0
I0
I0
I0
I0
I0
I0
I0
I0
I0
I0
I0
I0
I0
I0
I0
I0
I0
I0
I0
I0
I0
I0
I0
I0
I0
I0
I0
I0
I0
I0
I0
I0
I0
I0
I0
I0
I0
I0
I0
I0
I0
I0
I0
I0
I0
I0
I0
I0
I0
I0
I0
I0
I0
I0
I0
I0
I0
I0
I0
I0
I0
I0
I0
I0
I0
I0
I0
I0
I0
I0
I0
I0
I-1
I0
I0
I0
I0
I0
I0
I0
I0
I0
I0
I0
I0
I0
I0
I0
I0
I0
I0
I0
I0
I0
I0
I0
I0
I0
I0
I0
I0
I0
I0
I0
I0
I0
I0
I0
I0
I0
I0
I0
I0
I0
I0
I0
I0
I0
I0
I0
I0
I0
I0
I0
I0
I0
I0
I0
I0
I0
I0
I0
I0
I0
I0
I0
I0
I0
I0
I0
I0
I0
I0
I0
I0
I0
I0
I0
I0
I0
I0
I0
I0
I0
I0
I0
I0
I0
I0
I0
I0
I0
I0
I0
I0
I0
I0
I0
I0
I0
I0
I0
I0
I0
I0
I0
I0
I0
I0
I0
I0
I0
I0
I0
I0
I0
I0
I0
I0
I0
I0
I0
I0
I0
I0
I0
I0
I0
I0
I0
I0
I0
I0
I0
I0
I0
I0
I0
I0
I0
I0
I0
I0
I0
I0
I0
I0
I0
I0
I0
I0
I0
I0
I0
I0
I0
I0
I0
I0
I0
I0
I0
I0
I0
I0
I0
I0
I0
I0
I0
I0
I0
I0
I0
I0
I0
I0
I0
I0
I0
I0
I0
I0
I0
I0
I0
I0
I0
I0
I0
I0
I0
I0
I0
I0
I0
I0
I0
I0
I0
I0
I0
I0
I-1
I0
I0
I0
I0
I0
I0
I0
I0
I0
I0
I0
I0
I0
I0
I0
I0
I0
I0
I0
I0
I0
I0
I0
I0
I0
I0
I0
I0
I0
I0
I0
I0
I0
I0
I0
I0
I0
I0
I0
I0
I0
I0
I0
I0
I0
I0
I0
I0
I0
I0
I0
I0
I0
I0
I0
I0
I0
I0
I0
I0
I0
I0
I0
I0
I0
I0
I0
I0
I0
I0
I0
I0
I0
I0
I0
I0
I0
I0
I0
I0
I0
I0
I0
I0
I0
I0
I0
I0
I0
I0
I0
I0
I0
I0
I0
I0
I0
I0
I0
I0
I0
I0
I0
I0
I0
I0
I0
I0
I0
I0
I0
I0
I0
I0
I0
I0
I0
I0
I0
I0
I0
I0
I0
I0
I0
I0
I0
I0
I0
I0
I0
I0
I0
I0
I0
I0
I0
I0
I0
I0
I0
I0
I0
I0
I0
I0
I0
I0
I0
I0
I0
I0
I0
I0
I0
I0
I0
I0
I0
I0
I0
I0
I0
I0
I0
I0
I0
I0
I0
I0
I0
I0
I0
I0
I0
I0
I0
I0
I0
I0
I0
I0
I0
I0
I0
I0
I0
I0
I0
I0
I0
I0
I0
I0
I0
I0
I0
I0
I0
I0
I-1
I0
I0
I0
I0
I0
I0
I0
I0
I0
I0
I0
I0
I0
I0
I0
I0
I0
I0
I0
I0
I0
I0
I0
I0
I0
I0
I0
I0
I0
I0
I0
I0
I0
I0
I0
I0
I0
I0
I0
I0
I0
I0
I0
I0
I0
I0
I0
I0
I0
I0
I0
I0
I0
I0
I0
I0
I0
I0
I0
I0
I0
I0
I0
I0
I0
I0
I0
I0
I0
I0
I0
I0
I0
I0
I0
I0
I0
I0
I0
I0
I0
I0
I0
I0
I0
I0
I0
I0
I0
I0
I0
I0
I0
I0
I0
I0
I0
I0
I0
I0
I0
I0
I0
I0
I0
I0
I0
I0
I0
I0
I0
I0
I0
I0
I0
I0
I0
I0
I0
I0
I0
I0
I0
I0
I0
I0
I0
I0
I0
I0
I0
I0
I0
I0
I0
I0
I0
I0
I0
I0
I0
I0
I0
I0
I0
I0
I0
I0
I0
I0
I0
I0
I0
I0
I0
I0
I0
I0
I0
I0
I0
I0
I0
I0
I0
I0
I0
I0
I0
I0
I0
I0
I0
I0
I0
I0
I0
I0
I0
I0
I0
I0
I0
I0
I0
I0
I0
I0
I0
I0
I0
I0
I0
I0
I0
I0
I0
I0
I0
I0
I-1
I0
I0
I0
I0
I0
I0
I0
I0
I0
I0
I0
I0
I0
I0
I0
I0
I0
I0
I0
I0
I0
I0
I0
I0
I0
I0
I0
I0
I0
I0
I0
I0
I0
I0
I0
I0
I0
I0
I0
I0
I0
I0
I0
I0
I0
I0
I0
I0
I0
I0
I0
I0
I0
I0
I0
I0
I0
I0
I0
I0
I0
I0
I0
I0
I0
I0
I0
I0
I0
I0
I0
I0
I0
I0
I0
I0
I0
I0
I0
I0
I0
I0
I0
I0
I0
I0
I0
I0
I0
I0
I0
I0
I0
I0
I0
I0
I0
I0
I0
I0
I0
I0
I0
I0
I0
I0
I0
I0
I0
I0
I0
I0
I0
I0
I0
I0
I0
I0
I0
I0
I0
I0
I0
I0
I0
I0
I0
I0
I0
I0
I0
I0
I0
I0
I0
I0
I0
I0
I0
I0
I0
I0
I0
I0
I0
I0
I0
I0
I0
I0
I0
I0
I0
I0
I0
I0
I0
I0
I0
I0
I0
I0
I0
I0
I0
I0
I0
I0
I0
I0
I0
I0
I0
I0
I0
I0
I0
I0
I0
I0
I0
I0
I0
I0
I0
I0
I0
I0
I0
I0
I0
I0
I0
I0
I0
I0
I0
I0
I0
I0
I-1
I0
I0
I0
I0
I0
I0
I0
I0
I0
I0
I0
I0
I0
I0
I0
I0
I0
I0
I0
I0
I0
I0
I0
I0
I0
I0
I0
I0
I0
I0
I0
I0
I0
I0
I0
I0
I0
I0
I0
I0
I0
I0
I0
I0
I0
I0
I0
I0
I0
I0
I0
I0
I0
I0
I0
I0
I0
I0
I0
I0
I0
I0
I0
I0
I0
I0
I0
I0
I0
I0
I0
I0
I0
I0
I0
I0
I0
I0
I0
I0
I0
I0
I0
I0
I0
I0
I0
I0
I0
I0
I0
I0
I0
I0
I0
I0
I0
I0
I0
I0
I0
I0
I0
I0
I0
I0
I0
I0
I0
I0
I0
I0
I0
I0
I0
I0
I0
I0
I0
I0
I0
I0
I0
I0
I0
I0
I0
I0
I0
I0
I0
I0
I0
I0
I0
I0
I0
I0
I0
I0
I0
I0
I0
I0
I0
I0
I0
I0
I0
I0
I0
I0
I0
I0
I0
I0
I0
I0
I0
I0
I0
I0
I0
I0
I0
I0
I0
I0
I0
I0
I0
I0
I0
I0
I0
I0
I0
I0
I0
I0
I0
I0
I0
I0
I0
I0
I0
I0
I0
I0
I0
I0
I0
I0
I0
I0
I0
I0
I0
I0
I-1
I0
I0
I0
I0
I0
I0
I0
I0
I0
I0
I0
I0
I0
I0
I0
I0
I0
I0
I0
I0
I0
I0
I0
I0
I0
I0
I0
I0
I0
I0
I0
I0
I0
I0
I0
I0
I0
I0
I0
I0
I0
I0
I0
I0
I0
I0
I0
I0
I0
I0
I0
I0
I0
I0
I0
I0
I0
I0
I0
I0
I0
I0
I0
I0
I0
I0
I0
I0
I0
I0
I0
I0
I0
I0
I0
I0
I0
I0
I0
I0
I0
I0
I0
I0
I0
I0
I0
I0
I0
I0
I0
I0
I0
I0
I0
I0
I0
I0
I0
I0
I0
I0
I0
I0
I0
I0
I0
I0
I0
I0
I0
I0
I0
I0
I0
I0
I0
I0
I0
I0
I0
I0
I0
I0
I0
I0
I0
I0
I0
I0
I0
I0
I0
I0
I0
I0
I0
I0
I0
I0
I0
I0
I0
I0
I0
I0
I0
I0
I0
I0
I0
I0
I0
I0
I0
I0
I0
I0
I0
I0
I0
I0
I0
I0
I0
I0
I0
I0
I0
I0
I0
I0
I0
I0
I0
I0
I0
I0
I0
I0
I0
I0
I0
I0
I0
I0
I0
I0
I0
I0
I0
I0
I0
I0
I0
I0
I0
I0
I0
I0
I-1
I0
I0
I0
I0
I0
I0
I0
I0
I0
I0
I0
I0
I0
I0
I0
I0
I0
I0
I0
I0
I0
I0
I0
I0
I0
I0
I0
I0
I0
I0
I0
I0
I0
I0
I0
I0
I0
I0
I0
I0
I0
I0
I0
I0
I0
I0
I0
I0
I0
I0
I0
I0
I0
I0
I0
I0
I0
I0
I0
I0
I0
I0
I0
I0
I0
I0
I0
I0
I0
I0
I0
I0
I0
I0
I0
I0
I0
I0
I0
I0
I0
I0
I0
I0
I0
I0
I0
I0
I0
I0
I0
I0
I0
I0
I0
I0
I0
I0
I0
I0
I0
I0
I0
I0
I0
I0
I0
I0
I0
I0
I0
I0
I0
I0
I0
I0
I0
I0
I0
I0
I0
I0
I0
I0
I0
I0
I0
I0
I0
I0
I0
I0
I0
I0
I0
I0
I0
I0
I0
I0
I0
I0
I0
I0
I0
I0
I0
I0
I0
I0
I0
I0
I0
I0
I0
I0
I0
I0
I0
I0
I0
I0
I0
I0
I0
I0
I0
I0
I0
I0
I0
I0
I0
I0
I0
I0
I0
I0
I0
I0
I0
I0
I0
I0
I0
I0
I0
I0
I0
I0
I0
I0
I0
I0
I0
I0
I0
I0
I0
I0
I-1
I0
I0
I0
I0
I0
I0
I0
I0
I0
I0
I0
I0
I0
I0
I0
I0
I0
I0
I0
I0
I0
I0
I0
I0
I0
I0
I0
I0
I0
I0
I0
I0
I0
I0
I0
I0
I0
I0
I0
I0
I0
I0
I0
I0
I0
I0
I0
I0
I0
I0
I0
I0
I0
I0
I0
I0
I0
I0
I0
I0
I0
I0
I0
I0
I0
I0
I0
I0
I0
I0
I0
I0
I0
I0
I0
I0
I0
I0
I0
I0
I0
I0
I0
I0
I0
I0
I0
I0
I0
I0
I0
I0
I0
I0
I0
I0
I0
I0
I0
I0
I0
I0
I0
I0
I0
I0
I0
I0
I0
I0
I0
I0
I0
I0
I0
I0
I0
I0
I0
I0
I0
I0
I0
I0
I0
I0
I0
I0
I0
I0
I0
I0
I0
I0
I0
I0
I0
I0
I0
I0
I0
I0
I0
I0
I0
I0
I0
I0
I0
I0
I0
I0
I0
I0
I0
I0
I0
I0
I0
I0
I0
I0
I0
I0
I0
I0
I0
I0
I0
I0
I0
I0
I0
I0
I0
I0
I0
I0
I0
I0
I0
I0
I0
I0
I0
I0
I0
I0
I0
I0
I0
I0
I0
I0
I0
I0
I0
I0
I0
I0
I-1
I0
I0
I0
I0
I0
I0
I0
I0
I0
I0
I0
I0
I0
I0
I0
I0
I0
I0
I0
I0
I0
I0
I0
I0
I0
I0
I0
I0
I0
I0
I0
I0
I0
I0
I0
I0
I0
I0
I0
I0
I0
I0
I0
I0
I0
I0
I0
I0
I0
I0
I0
I0
I0
I0
I0
I0
I0
I0
I0
I0
I0
I0
I0
I0
I0
I0
I0
I0
I0
I0
I0
I0
I0
I0
I0
I0
I0
I0
I0
I0
I0
I0
I0
I0
I0
I0
I0
I0
I0
I0
I0
I0
I0
I0
I0
I0
I0
I0
I0
I0
I0
I0
I0
I0
I0
I0
I0
I0
I0
I0
I0
I0
I0
I0
I0
I0
I0
I0
I0
I0
I0
I0
I0
I0
I0
I0
I0
I0
I0
I0
I0
I0
I0
I0
I0
I0
I0
I0
I0
I0
I0
I0
I0
I0
I0
I0
I0
I0
I0
I0
I0
I0
I0
I0
I0
I0
I0
I0
I0
I0
I0
I0
I0
I0
I0
I0
I0
I0
I0
I0
I0
I0
I0
I0
I0
I0
I0
I0
I0
I0
I0
I0
I0
I0
I0
I0
I0
I0
I0
I0
I0
I0
I0
I0
I0
I0
I0
I0
I0
I0
I-1
I0
I0
I0
I0
I0
I0
I0
I0
I0
I0
I0
I0
I0
I0
I0
I0
I0
I0
I0
I0
I0
I0
I0
I0
I0
I0
I0
I0
I0
I0
I0
I0
I0
I0
I0
I0
I0
I0
I0
I0
I0
I0
I0
I0
I0
I0
I0
I0
I0
I0
I0
I0
I0
I0
I0
I0
I0
I0
I0
I0
I0
I0
I0
I0
I0
I0
I0
I0
I0
I0
I0
I0
I0
I0
I0
I0
I0
I0
I0
I0
I0
I0
I0
I0
I0
I0
I0
I0
I0
I0
I0
I0
I0
I0
I0
I0
I0
I0
I0
I0
I0
I0
I0
I0
I0
I0
I0
I0
I0
I0
I0
I0
I0
I0
I0
I0
I0
I0
I0
I0
I0
I0
I0
I0
I0
I0
I0
I0
I0
I0
I0
I0
I0
I0
I0
I0
I0
I0
I0
I0
I0
I0
I0
I0
I0
I0
I0
I0
I0
I0
I0
I0
I0
I0
I0
I0
I0
I0
I0
I0
I0
I0
I0
I0
I0
I0
I0
I0
I0
I0
I0
I0
I0
I0
I0
I0
I0
I0
I0
I0
I0
I0
I0
I0
I0
I0
I0
I0
I0
I0
I0
I0
I0
I0
I0
I0
I0
I0
I0
I0
I-1
I0
I0
I0
I0
I0
I0
I0
I0
I0
I0
I0
I0
I0
I0
I0
I0
I0
I0
I0
I0
I0
I0
I0
I0
I0
I0
I0
I0
I0
I0
I0
I0
I0
I0
I0
I0
I0
I0
I0
I0
I0
I0
I0
I0
I0
I0
I0
I0
I0
I0
I0
I0
I0
I0
I0
I0
I0
I0
I0
I0
I0
I0
I0
I0
I0
I0
I0
I0
I0
I0
I0
I0
I0
I0
I0
I0
I0
I0
I0
I0
I0
I0
I0
I0
I0
I0
I0
I0
I0
I0
I0
I0
I0
I0
I0
I0
I0
I0
I0
I0
I0
I0
I0
I0
I0
I0
I0
I0
I0
I0
I0
I0
I0
I0
I0
I0
I0
I0
I0
I0
I0
I0
I0
I0
I0
I0
I0
I0
I0
I0
I0
I0
I0
I0
I0
I0
I0
I0
I0
I0
I0
I0
I0
I0
I0
I0
I0
I0
I0
I0
I0
I0
I0
I0
I0
I0
I0
I0
I0
I0
I0
I0
I0
I0
I0
I0
I0
I0
I0
I0
I0
I0
I0
I0
I0
I0
I0
I0
I0
I0
I0
I0
I0
I0
I0
I0
I0
I0
I0
I0
I0
I0
I0
I0
I0
I0
I0
I0
I0
I0
I-1
I0
I0
I0
I0
I0
I0
I0
I0
I0
I0
I0
I0
I0
I0
I0
I0
I0
I0
I0
I0
I0
I0
I0
I0
I0
I0
I0
I0
I0
I0
I0
I0
I0
I0
I0
I0
I0
I0
I0
I0
I0
I0
I0
I0
I0
I0
I0
I0
I0
I0
I0
I0
I0
I0
I0
I0
I0
I0
I0
I0
I0
I0
I0
I0
I0
I0
I0
I0
I0
I0
I0
I0
I0
I0
I0
I0
I0
I0
I0
I0
I0
I0
I0
I0
I0
I0
I0
I0
I0
I0
I0
I0
I0
I0
I0
I0
I0
I0
I0
I0
I0
I0
I0
I0
I0
I0
I0
I0
I0
I0
I0
I0
I0
I0
I0
I0
I0
I0
I0
I0
I0
I0
I0
I0
I0
I0
I0
I0
I0
I0
I0
I0
I0
I0
I0
I0
I0
I0
I0
I0
I0
I0
I0
I0
I0
I0
I0
I0
I0
I0
I0
I0
I0
I0
I0
I0
I0
I0
I0
I0
I0
I0
I0
I0
I0
I0
I0
I0
I0
I0
I0
I0
I0
I0
I0
I0
I0
I0
I0
I0
I0
I0
I0
I0
I0
I0
I0
I0
I0
I0
I0
I0
I0
I0
I0
I0
I0
I0
I0
I0
I-1
I0
I0
I0
I0
I0
I0
I0
I0
I0
I0
I0
I0
I0
I0
I0
I0
I0
I0
I0
I0
I0
I0
I0
I0
I0
I0
I0
I0
I0
I0
I0
I0
I0
I0
I0
I0
I0
I0
I0
I0
I0
I0
I0
I0
I0
I0
I0
I0
I0
I0
I0
I0
I0
I0
I0
I0
I0
I0
I0
I0
I0
I0
I0
I0
I0
I0
I0
I0
I0
I0
I0
I0
I0
I0
I0
I0
I0
I0
I0
I0
I0
I0
I0
I0
I0
I0
I0
I0
I0
I0
I0
I0
I0
I0
I0
I0
I0
I0
I0
I0
I0
I0
I0
I0
I0
I0
I0
I0
I0
I0
I0
I0
I0
I0
I0
I0
I0
I0
I0
I0
I0
I0
I0
I0
I0
I0
I0
I0
I0
I0
I0
I0
I0
I0
I0
I0
I0
I0
I0
I0
I0
I0
I0
I0
I0
I0
I0
I0
I0
I0
I0
I0
I0
I0
I0
I0
I0
I0
I0
I0
I0
I0
I0
I0
I0
I0
I0
I0
I0
I0
I0
I0
I0
I0
I0
I0
I0
I0
I0
I0
I0
I0
I0
I0
I0
I0
I0
I0
I0
I0
I0
I0
I0
I0
I0
I0
I0
I0
I0
I0
I-1
I0
I0
I0
I0
I0
I0
I0
I0
I0
I0
I0
I0
I0
I0
I0
I0
I0
I0
I0
I0
I0
I0
I0
I0
I0
I0
I0
I0
I0
I0
I0
I0
I0
I0
I0
I0
I0
I0
I0
I0
I0
I0
I0
I0
I0
I0
I0
I0
I0
I0
I0
I0
I0
I0
I0
I0
I0
I0
I0
I0
I0
I0
I0
I0
I0
I0
I0
I0
I0
I0
I0
I0
I0
I0
I0
I0
I0
I0
I0
I0
I0
I0
I0
I0
I0
I0
I0
I0
I0
I0
I0
I0
I0
I0
I0
I0
I0
I0
I0
I0
I0
I0
I0
I0
I0
I0
I0
I0
I0
I0
I0
I0
I0
I0
I0
I0
I0
I0
I0
I0
I0
I0
I0
I0
I0
I0
I0
I0
I0
I0
I0
I0
I0
I0
I0
I0
I0
I0
I0
I0
I0
I0
I0
I0
I0
I0
I0
I0
I0
I0
I0
I0
I0
I0
I0
I0
I0
I0
I0
I0
I0
I0
I0
I0
I0
I0
I0
I0
I0
I0
I0
I0
I0
I0
I0
I0
I0
I0
I0
I0
I0
I0
I0
I0
I0
I0
I0
I0
I0
I0
I0
I0
I0
I0
I0
I0
I0
I0
I0
I0
I-1
I0
I0
I0
I0
I0
I0
I0
I0
I0
I0
I0
I0
I0
I0
I0
I0
I0
I0
I0
I0
I0
I0
I0
I0
I0
I0
I0
I0
I0
I0
I0
I0
I0
I0
I0
I0
I0
I0
I0
I0
I0
I0
I0
I0
I0
I0
I0
I0
I0
I0
I0
I0
I0
I0
I0
I0
I0
I0
I0
I0
I0
I0
I0
I0
I0
I0
I0
I0
I0
I0
I0
I0
I0
I0
I0
I0
I0
I0
I0
I0
I0
I0
I0
I0
I0
I0
I0
I0
I0
I0
I0
I0
I0
I0
I0
I0
I0
I0
I0
I0
I0
I0
I0
I0
I0
I0
I0
I0
I0
I0
I0
I0
I0
I0
I0
I0
I0
I0
I0
I0
I0
I0
I0
I0
I0
I0
I0
I0
I0
I0
I0
I0
I0
I0
I0
I0
I0
I0
I0
I0
I0
I0
I0
I0
I0
I0
I0
I0
I0
I0
I0
I0
I0
I0
I0
I0
I0
I0
I0
I0
I0
I0
I0
I0
I0
I0
I0
I0
I0
I0
I0
I0
I0
I0
I0
I0
I0
I0
I0
I0
I0
I0
I0
I0
I0
I0
I0
I0
I0
I0
I0
I0
I0
I0
I0
I0
I0
I0
I0
I0
I-1
I0
I0
I0
I0
I0
I0
I0
I0
I0
I0
I0
I0
I0
I0
I0
I0
I0
I0
I0
I0
I0
I0
I0
I0
I0
I0
I0
I0
I0
I0
I0
I0
I0
I0
I0
I0
I0
I0
I0
I0
I0
I0
I0
I0
I0
I0
I0
I0
I0
I0
I0
I0
I0
I0
I0
I0
I0
I0
I0
I0
I0
I0
I0
I0
I0
I0
I0
I0
I0
I0
I0
I0
I0
I0
I0
I0
I0
I0
I0
I0
I0
I0
I0
I0
I0
I0
I0
I0
I0
I0
I0
I0
I0
I0
I0
I0
I0
I0
I0
I0
I0
I0
I0
I0
I0
I0
I0
I0
I0
I0
I0
I0
I0
I0
I0
I0
I0
I0
I0
I0
I0
I0
I0
I0
I0
I0
I0
I0
I0
I0
I0
I0
I0
I0
I0
I0
I0
I0
I0
I0
I0
I0
I0
I0
I0
I0
I0
I0
I0
I0
I0
I0
I0
I0
I0
I0
I0
I0
I0
I0
I0
I0
I0
I0
I0
I0
I0
I0
I0
I0
I0
I0
I0
I0
I0
I0
I0
I0
I0
I0
I0
I0
I0
I0
I0
I0
I0
I0
I0
I0
I0
I0
I0
I0
I0
I0
I0
I0
I0
I0
I-1
I0
I0
I0
I0
I0
I0
I0
I0
I0
I0
I0
I0
I0
I0
I0
I0
I0
I0
I0
I0
I0
I0
I0
I0
I0
I0
I0
I0
I0
I0
I0
I0
I0
I0
I0
I0
I0
I0
I0
I0
I0
I0
I0
I0
I0
I0
I0
I0
I0
I0
I0
I0
I0
I0
I0
I0
I0
I0
I0
I0
I0
I0
I0
I0
I0
I0
I0
I0
I0
I0
I0
I0
I0
I0
I0
I0
I0
I0
I0
I0
I0
I0
I0
I0
I0
I0
I0
I0
I0
I0
I0
I0
I0
I0
I0
I0
I0
I0
I0
I0
I0
I0
I0
I0
I0
I0
I0
I0
I0
I0
I0
I0
I0
I0
I0
I0
I0
I0
I0
I0
I0
I0
I0
I0
I0
I0
I0
I0
I0
I0
I0
I0
I0
I0
I0
I0
I0
I0
I0
I0
I0
I0
I0
I0
I0
I0
I0
I0
I0
I0
I0
I0
I0
I0
I0
I0
I0
I0
I0
I0
I0
I0
I0
I0
I0
I0
I0
I0
I0
I0
I0
I0
I0
I0
I0
I0
I0
I0
I0
I0
I0
I0
I0
I0
I0
I0
I0
I0
I0
I0
I0
I0
I0
I0
I0
I0
I0
I0
I0
I0
I-1
I0
I0
I0
I0
I0
I0
I0
I0
I0
I0
I0
I0
I0
I0
I0
I0
I0
I0
I0
I0
I0
I0
I0
I0
I0
I0
I0
I0
I0
I0
I0
I0
I0
I0
I0
I0
I0
I0
I0
I0
I0
I0
I0
I0
I0
I0
I0
I0
I0
I0
I0
I0
I0
I0
I0
I0
I0
I0
I0
I0
I0
I0
I0
I0
I0
I0
I0
I0
I0
I0
I0
I0
I0
I0
I0
I0
I0
I0
I0
I0
I0
I0
I0
I0
I0
I0
I0
I0
I0
I0
I0
I0
I0
I0
I0
I0
I0
I0
I0
I0
I0
I0
I0
I0
I0
I0
I0
I0
I0
I0
I0
I0
I0
I0
I0
I0
I0
I0
I0
I0
I0
I0
I0
I0
I0
I0
I0
I0
I0
I0
I0
I0
I0
I0
I0
I0
I0
I0
I0
I0
I0
I0
I0
I0
I0
I0
I0
I0
I0
I0
I0
I0
I0
I0
I0
I0
I0
I0
I0
I0
I0
I0
I0
I0
I0
I0
I0
I0
I0
I0
I0
I0
I0
I0
I0
I0
I0
I0
I0
I0
I0
I0
I0
I0
I0
I0
I0
I0
I0
I0
I0
I0
I0
I0
I0
I0
I0
I0
I0
I0
I-1
I0
I0
I0
I0
I0
I0
I0
I0
I0
I0
I0
I0
I0
I0
I0
I0
I0
I0
I0
I0
I0
I0
I0
I0
I0
I0
I0
I0
I0
I0
I0
I0
I0
I0
I0
I0
I0
I0
I0
I0
I0
I0
I0
I0
I0
I0
I0
I0
I0
I0
I0
I0
I0
I0
I0
I0
I0
I0
I0
I0
I0
I0
I0
I0
I0
I0
I0
I0
I0
I0
I0
I0
I0
I0
I0
I0
I0
I0
I0
I0
I0
I0
I0
I0
I0
I0
I0
I0
I0
I0
I0
I0
I0
I0
I0
I0
I0
I0
I0
I0
I0
I0
I0
I0
I0
I0
I0
I0
I0
I0
I0
I0
I0
I0
I0
I0
I0
I0
I0
I0
I0
I0
I0
I0
I0
I0
I0
I0
I0
I0
I0
I0
I0
I0
I0
I0
I0
I0
I0
I0
I0
I0
I0
I0
I0
I0
I0
I0
I0
I0
I0
I0
I0
I0
I0
I0
I0
I0
I0
I0
I0
I0
I0
I0
I0
I0
I0
I0
I0
I0
I0
I0
I0
I0
I0
I0
I0
I0
I0
I0
I0
I0
I0
I0
I0
I0
I0
I0
I0
I0
I0
I0
I0
I0
I0
I0
I0
I0
I0
I0
I-1
I0
I0
I0
I0
I0
I0
I0
I0
I0
I0
I0
I0
I0
I0
I0
I0
I0
I0
I0
I0
I0
I0
I0
I0
I0
I0
I0
I0
I0
I0
I0
I0
I0
I0
I0
I0
I0
I0
I0
I0
I0
I0
I0
I0
I0
I0
I0
I0
I0
I0
I0
I0
I0
I0
I0
I0
I0
I0
I0
I0
I0
I0
I0
I0
I0
I0
I0
I0
I0
I0
I0
I0
I0
I0
I0
I0
I0
I0
I0
I0
I0
I0
I0
I0
I0
I0
I0
I0
I0
I0
I0
I0
I0
I0
I0
I0
I0
I0
I0
I0
I0
I0
I0
I0
I0
I0
I0
I0
I0
I0
I0
I0
I0
I0
I0
I0
I0
I0
I0
I0
I0
I0
I0
I0
I0
I0
I0
I0
I0
I0
I0
I0
I0
I0
I0
I0
I0
I0
I0
I0
I0
I0
I0
I0
I0
I0
I0
I0
I0
I0
I0
I0
I0
I0
I0
I0
I0
I0
I0
I0
I0
I0
I0
I0
I0
I0
I0
I0
I0
I0
I0
I0
I0
I0
I0
I0
I0
I0
I0
I0
I0
I0
I0
I0
I0
I0
I0
I0
I0
I0
I0
I0
I0
I0
I0
I0
I0
I0
I0
I0
I-1
I0
I0
I0
I0
I0
I0
I0
I0
I0
I0
I0
I0
I0
I0
I0
I0
I0
I0
I0
I0
I0
I0
I0
I0
I0
I0
I0
I0
I0
I0
I0
I0
I0
I0
I0
I0
I0
I0
I0
I0
I0
I0
I0
I0
I0
I0
I0
I0
I0
I0
I0
I0
I0
I0
I0
I0
I0
I0
I0
I0
I0
I0
I0
I0
I0
I0
I0
I0
I0
I0
I0
I0
I0
I0
I0
I0
I0
I0
I0
I0
I0
I0
I0
I0
I0
I0
I0
I0
I0
I0
I0
I0
I0
I0
I0
I0
I0
I0
I0
I0
I0
I0
I0
I0
I0
I0
I0
I0
I0
I0
I0
I0
I0
I0
I0
I0
I0
I0
I0
I0
I0
I0
I0
I0
I0
I0
I0
I0
I0
I0
I0
I0
I0
I0
I0
I0
I0
I0
I0
I0
I0
I0
I0
I0
I0
I0
I0
I0
I0
I0
I0
I0
I0
I0
I0
I0
I0
I0
I0
I0
I0
I0
I0
I0
I0
I0
I0
I0
I0
I0
I0
I0
I0
I0
I0
I0
I0
I0
I0
I0
I0
I0
I0
I0
I0
I0
I0
I0
I0
I0
I0
I0
I0
I0
I0
I0
I0
I0
I0
I0
I-1
I0
I0
I0
I0
I0
I0
I0
I0
I0
I0
I0
I0
I0
I0
I0
I0
I0
I0
I0
I0
I0
I0
I0
I0
I0
I0
I0
I0
I0
I0
I0
I0
I0
I0
I0
I0
I0
I0
I0
I0
I0
I0
I0
I0
I0
I0
I0
I0
I0
I0
I0
I0
I0
I0
I0
I0
I0
I0
I0
I0
I0
I0
I0
I0
I0
I0
I0
I0
I0
I0
I0
I0
I0
I0
I0
I0
I0
I0
I0
I0
I0
I0
I0
I0
I0
I0
I0
I0
I0
I0
I0
I0
I0
I0
I0
I0
I0
I0
I0
I0
I0
I0
I0
I0
I0
I0
I0
I0
I0
I0
I0
I0
I0
I0
I0
I0
I0
I0
I0
I0
I0
I0
I0
I0
I0
I0
I0
I0
I0
I0
I0
I0
I0
I0
I0
I0
I0
I0
I0
I0
I0
I0
I0
I0
I0
I0
I0
I0
I0
I0
I0
I0
I0
I0
I0
I0
I0
I0
I0
I0
I0
I0
I0
I0
I0
I0
I0
I0
I0
I0
I0
I0
I0
I0
I0
I0
I0
I0
I0
I0
I0
I0
I0
I0
I0
I0
I0
I0
I0
I0
I0
I0
I0
I0
I0
I0
I0
I0
I0
I0
I-1
I0
I0
I0
I0
I0
I0
I0
I0
I0
I0
I0
I0
I0
I0
I0
I0
I0
I0
I0
I0
I0
I0
I0
I0
I0
I0
I0
I0
I0
I0
I0
I0
I0
I0
I0
I0
I0
I0
I0
I0
I0
I0
I0
I0
I0
I0
I0
I0
I0
I0
I0
I0
I0
I0
I0
I0
I0
I0
I0
I0
I0
I0
I0
I0
I0
I0
I0
I0
I0
I0
I0
I0
I0
I0
I0
I0
I0
I0
I0
I0
I0
I0
I0
I0
I0
I0
I0
I0
I0
I0
I0
I0
I0
I0
I0
I0
I0
I0
I0
I0
I0
I0
I0
I0
I0
I0
I0
I0
I0
I0
I0
I0
I0
I0
I0
I0
I0
I0
I0
I0
I0
I0
I0
I0
I0
I0
I0
I0
I0
I0
I0
I0
I0
I0
I0
I0
I0
I0
I0
I0
I0
I0
I0
I0
I0
I0
I0
I0
I0
I0
I0
I0
I0
I0
I0
I0
I0
I0
I0
I0
I0
I0
I0
I0
I0
I0
I0
I0
I0
I0
I0
I0
I0
I0
I0
I0
I0
I0
I0
I0
I0
I0
I0
I0
I0
I0
I0
I0
I0
I0
I0
I0
I0
I0
I0
I0
I0
I0
I0
I0
I-1
I0
I0
I0
I0
I0
I0
I0
I0
I0
I0
I0
I0
I0
I0
I0
I0
I0
I0
I0
I0
I0
I0
I0
I0
I0
I0
I0
I0
I0
I0
I0
I0
I0
I0
I0
I0
I0
I0
I0
I0
I0
I0
I0
I0
I0
I0
I0
I0
I0
I0
I0
I0
I0
I0
I0
I0
I0
I0
I0
I0
I0
I0
I0
I0
I0
I0
I0
I0
I0
I0
I0
I0
I0
I0
I0
I0
I0
I0
I0
I0
I0
I0
I0
I0
I0
I0
I0
I0
I0
I0
I0
I0
I0
I0
I0
I0
I0
I0
I0
I0
I0
I0
I0
I0
I0
I0
I0
I0
I0
I0
I0
I0
I0
I0
I0
I0
I0
I0
I0
I0
I0
I0
I0
I0
I0
I0
I0
I0
I0
I0
I0
I0
I0
I0
I0
I0
I0
I0
I0
I0
I0
I0
I0
I0
I0
I0
I0
I0
I0
I0
I0
I0
I0
I0
I0
I0
I0
I0
I0
I0
I0
I0
I0
I0
I0
I0
I0
I0
I0
I0
I0
I0
I0
I0
I0
I0
I0
I0
I0
I0
I0
I0
I0
I0
I0
I0
I0
I0
I0
I0
I0
I0
I0
I0
I0
I0
I0
I0
I0
I0
I-1
I0
I0
I0
I0
I0
I0
I0
I0
I0
I0
I0
I0
I0
I0
I0
I0
I0
I0
I0
I0
I0
I0
I0
I0
I0
I0
I0
I0
I0
I0
I0
I0
I0
I0
I0
I0
I0
I0
I0
I0
I0
I0
I0
I0
I0
I100
I100
I100
I100
I100
I100
I100
I100
I100
I100
I100
I0
I0
I0
I0
I0
I0
I0
I0
I0
I0
I0
I0
I0
I0
I0
I0
I0
I0
I0
I0
I0
I0
I0
I0
I0
I0
I0
I0
I0
I0
I0
I0
I0
I0
I0
I0
I0
I0
I0
I0
I0
I0
I0
I0
I0
I0
I0
I0
I0
I0
I0
I0
I0
I0
I0
I0
I0
I0
I0
I0
I0
I0
I0
I0
I0
I0
I0
I0
I0
I0
I0
I0
I0
I0
I0
I0
I0
I0
I0
I0
I0
I0
I0
I0
I0
I0
I0
I0
I0
I0
I100
I100
I100
I100
I100
I100
I100
I100
I100
I100
I0
I0
I0
I0
I0
I0
I0
I0
I0
I0
I0
I0
I0
I0
I0
I0
I0
I0
I0
I0
I0
I0
I0
I0
I0
I0
I0
I0
I0
I0
I0
I0
I0
I0
I0
I0
I0
I0
I0
I0
I0
I0
I0
I0
I-1
I0
I0
I0
I0
I0
I0
I0
I0
I0
I0
I0
I0
I0
I0
I0
I0
I0
I0
I0
I0
I0
I0
I0
I0
I0
I0
I0
I0
I0
I0
I0
I0
I0
I0
I0
I0
I0
I0
I0
I0
I0
I0
I0
I0
I0
I100
I100
I100
I100
I100
I100
I100
I100
I100
I100
I100
I0
I0
I0
I0
I0
I0
I0
I0
I0
I0
I0
I0
I0
I0
I0
I0
I0
I0
I0
I0
I0
I0
I0
I0
I0
I0
I0
I0
I0
I0
I0
I0
I0
I0
I0
I0
I0
I0
I0
I0
I0
I0
I0
I0
I0
I0
I0
I0
I0
I0
I0
I0
I0
I0
I0
I0
I0
I0
I0
I0
I0
I0
I0
I0
I0
I0
I0
I0
I0
I0
I0
I0
I0
I0
I0
I0
I0
I0
I0
I0
I0
I0
I0
I0
I0
I0
I0
I0
I0
I100
I100
I100
I100
I100
I100
I100
I100
I100
I100
I100
I0
I0
I0
I0
I0
I0
I0
I0
I0
I0
I0
I0
I0
I0
I0
I0
I0
I0
I0
I0
I0
I0
I0
I0
I0
I0
I0
I0
I0
I0
I0
I0
I0
I0
I0
I0
I0
I0
I0
I0
I0
I0
I0
I0
I-1
I0
I0
I0
I0
I0
I0
I0
I0
I0
I0
I0
I0
I0
I0
I0
I0
I0
I0
I0
I0
I0
I0
I0
I0
I0
I0
I0
I0
I0
I0
I0
I0
I0
I0
I0
I0
I0
I0
I0
I0
I0
I0
I0
I0
I0
I100
I100
I100
I100
I100
I100
I100
I100
I100
I100
I100
I0
I0
I0
I0
I0
I0
I0
I0
I0
I0
I0
I0
I0
I0
I0
I0
I0
I0
I0
I0
I0
I0
I0
I0
I0
I0
I0
I0
I0
I0
I0
I0
I0
I0
I0
I0
I0
I0
I0
I0
I0
I0
I0
I0
I0
I0
I0
I0
I0
I0
I0
I0
I0
I0
I0
I0
I0
I0
I0
I0
I0
I0
I0
I0
I0
I0
I0
I0
I0
I0
I0
I0
I0
I0
I0
I0
I0
I0
I0
I0
I0
I0
I0
I0
I0
I0
I0
I0
I0
I100
I100
I100
I100
I100
I100
I100
I100
I100
I100
I100
I0
I0
I0
I0
I0
I0
I0
I0
I0
I0
I0
I0
I0
I0
I0
I0
I0
I0
I0
I0
I0
I0
I0
I0
I0
I0
I0
I0
I0
I0
I0
I0
I0
I0
I0
I0
I0
I0
I0
I0
I0
I0
I0
I0
I-1
I0
I0
I0
I0
I0
I0
I0
I0
I0
I0
I0
I0
I0
I0
I0
I0
I0
I0
I0
I0
I0
I0
I0
I0
I0
I0
I0
I0
I0
I0
I0
I0
I0
I0
I0
I0
I0
I0
I0
I0
I0
I0
I0
I0
I0
I100
I100
I100
I100
I100
I100
I100
I100
I100
I100
I100
I0
I0
I0
I0
I0
I0
I0
I0
I0
I0
I0
I0
I0
I0
I0
I0
I0
I0
I0
I0
I0
I0
I0
I0
I0
I0
I0
I0
I0
I0
I0
I0
I0
I0
I0
I0
I0
I0
I0
I0
I0
I0
I0
I0
I0
I0
I0
I0
I0
I0
I0
I0
I0
I0
I0
I0
I0
I0
I0
I0
I0
I0
I0
I0
I0
I0
I0
I0
I0
I0
I0
I0
I0
I0
I0
I0
I0
I0
I0
I0
I0
I0
I0
I0
I0
I0
I0
I0
I0
I100
I100
I100
I100
I100
I100
I100
I100
I100
I100
I100
I0
I0
I0
I0
I0
I0
I0
I0
I0
I0
I0
I0
I0
I0
I0
I0
I0
I0
I0
I0
I0
I0
I0
I0
I0
I0
I0
I0
I0
I0
I0
I0
I0
I0
I0
I0
I0
I0
I0
I0
I0
I0
I0
I0
I-1
I0
I0
I0
I0
I0
I0
I0
I0
I0
I0
I0
I0
I0
I0
I0
I0
I0
I0
I0
I0
I0
I0
I0
I0
I0
I0
I0
I0
I0
I0
I0
I0
I0
I0
I0
I0
I0
I0
I0
I0
I0
I0
I0
I0
I0
I100
I100
I100
I100
I100
I100
I100
I100
I100
I100
I100
I0
I0
I0
I0
I0
I0
I0
I0
I0
I0
I0
I0
I0
I0
I0
I0
I0
I0
I0
I0
I0
I0
I0
I0
I0
I0
I0
I0
I0
I0
I0
I0
I0
I0
I0
I0
I0
I0
I0
I0
I0
I0
I0
I0
I0
I0
I0
I0
I0
I0
I0
I0
I0
I0
I0
I0
I0
I0
I0
I0
I0
I0
I0
I0
I0
I0
I0
I0
I0
I0
I0
I0
I0
I0
I0
I0
I0
I0
I0
I0
I0
I0
I0
I0
I0
I0
I0
I0
I0
I100
I100
I100
I100
I100
I100
I100
I100
I100
I100
I100
I0
I0
I0
I0
I0
I0
I0
I0
I0
I0
I0
I0
I0
I0
I0
I0
I0
I0
I0
I0
I0
I0
I0
I0
I0
I0
I0
I0
I0
I0
I0
I0
I0
I0
I0
I0
I0
I0
I0
I0
I0
I0
I0
I0
I-1
I0
I0
I0
I0
I0
I0
I0
I0
I0
I0
I0
I0
I0
I0
I0
I0
I0
I0
I0
I0
I0
I0
I0
I0
I0
I0
I0
I0
I0
I0
I0
I0
I0
I0
I0
I0
I0
I0
I0
I0
I0
I0
I0
I0
I0
I100
I100
I100
I100
I100
I100
I100
I100
I100
I100
I100
I0
I0
I0
I0
I0
I0
I0
I0
I0
I0
I0
I0
I0
I0
I0
I0
I0
I0
I0
I0
I0
I0
I0
I0
I0
I0
I0
I0
I0
I0
I0
I0
I0
I0
I0
I0
I0
I0
I0
I0
I0
I0
I0
I0
I0
I0
I0
I0
I0
I0
I0
I0
I0
I0
I0
I0
I0
I0
I0
I0
I0
I0
I0
I0
I0
I0
I0
I0
I0
I0
I0
I0
I0
I0
I0
I0
I0
I0
I0
I0
I0
I0
I0
I0
I0
I0
I0
I0
I0
I100
I100
I100
I100
I100
I100
I100
I100
I100
I100
I100
I0
I0
I0
I0
I0
I0
I0
I0
I0
I0
I0
I0
I0
I0
I0
I0
I0
I0
I0
I0
I0
I0
I0
I0
I0
I0
I0
I0
I0
I0
I0
I0
I0
I0
I0
I0
I0
I0
I0
I0
I0
I0
I0
I0
I-1
I0
I0
I0
I0
I0
I0
I0
I0
I0
I0
I0
I0
I0
I0
I0
I0
I0
I0
I0
I0
I0
I0
I0
I0
I0
I0
I0
I0
I0
I0
I0
I0
I0
I0
I0
I0
I0
I0
I0
I0
I0
I0
I0
I0
I0
I100
I100
I100
I100
I100
I100
I100
I100
I100
I100
I100
I0
I0
I0
I0
I0
I0
I0
I0
I0
I0
I0
I0
I0
I0
I0
I0
I0
I0
I0
I0
I0
I0
I0
I0
I0
I0
I0
I0
I0
I0
I0
I0
I0
I0
I0
I0
I0
I0
I0
I0
I0
I0
I0
I0
I0
I0
I0
I0
I0
I0
I0
I0
I0
I0
I0
I0
I0
I0
I0
I0
I0
I0
I0
I0
I0
I0
I0
I0
I0
I0
I0
I0
I0
I0
I0
I0
I0
I0
I0
I0
I0
I0
I0
I0
I0
I0
I0
I0
I0
I100
I100
I100
I100
I100
I100
I100
I100
I100
I100
I100
I0
I0
I0
I0
I0
I0
I0
I0
I0
I0
I0
I0
I0
I0
I0
I0
I0
I0
I0
I0
I0
I0
I0
I0
I0
I0
I0
I0
I0
I0
I0
I0
I0
I0
I0
I0
I0
I0
I0
I0
I0
I0
I0
I0
I-1
I0
I0
I0
I0
I0
I0
I0
I0
I0
I0
I0
I0
I0
I0
I0
I0
I0
I0
I0
I0
I0
I0
I0
I0
I0
I0
I0
I0
I0
I0
I0
I0
I0
I0
I0
I0
I0
I0
I0
I0
I0
I0
I0
I0
I0
I100
I100
I100
I100
I100
I100
I100
I100
I100
I100
I100
I0
I0
I0
I0
I0
I0
I0
I0
I0
I0
I0
I0
I0
I0
I0
I0
I0
I0
I0
I0
I0
I0
I0
I0
I0
I0
I0
I0
I0
I0
I0
I0
I0
I0
I0
I0
I0
I0
I0
I0
I0
I0
I0
I0
I0
I0
I0
I0
I0
I0
I0
I0
I0
I0
I0
I0
I0
I0
I0
I0
I0
I0
I0
I0
I0
I0
I0
I0
I0
I0
I0
I0
I0
I0
I0
I0
I0
I0
I0
I0
I0
I0
I0
I0
I0
I0
I0
I0
I0
I100
I100
I100
I100
I100
I100
I100
I100
I100
I100
I100
I0
I0
I0
I0
I0
I0
I0
I0
I0
I0
I0
I0
I0
I0
I0
I0
I0
I0
I0
I0
I0
I0
I0
I0
I0
I0
I0
I0
I0
I0
I0
I0
I0
I0
I0
I0
I0
I0
I0
I0
I0
I0
I0
I0
I-1
I0
I0
I0
I0
I0
I0
I0
I0
I0
I0
I0
I0
I0
I0
I0
I0
I0
I0
I0
I0
I0
I0
I0
I0
I0
I0
I0
I0
I0
I0
I0
I0
I0
I0
I0
I0
I0
I0
I0
I0
I0
I0
I0
I0
I0
I100
I100
I100
I100
I100
I100
I100
I100
I100
I100
I100
I0
I0
I0
I0
I0
I0
I0
I0
I0
I0
I0
I0
I0
I0
I0
I0
I0
I0
I0
I0
I0
I0
I0
I0
I0
I0
I0
I0
I0
I0
I0
I0
I0
I0
I0
I0
I0
I0
I0
I0
I0
I0
I0
I0
I0
I0
I0
I0
I0
I0
I0
I0
I0
I0
I0
I0
I0
I0
I0
I0
I0
I0
I0
I0
I0
I0
I0
I0
I0
I0
I0
I0
I0
I0
I0
I0
I0
I0
I0
I0
I0
I0
I0
I0
I0
I0
I0
I0
I0
I100
I100
I100
I100
I100
I100
I100
I100
I100
I100
I100
I0
I0
I0
I0
I0
I0
I0
I0
I0
I0
I0
I0
I0
I0
I0
I0
I0
I0
I0
I0
I0
I0
I0
I0
I0
I0
I0
I0
I0
I0
I0
I0
I0
I0
I0
I0
I0
I0
I0
I0
I0
I0
I0
I0
I-1
I0
I0
I0
I0
I0
I0
I0
I0
I0
I0
I0
I0
I0
I0
I0
I0
I0
I0
I0
I0
I0
I0
I0
I0
I0
I0
I0
I0
I0
I0
I0
I0
I0
I0
I0
I0
I0
I0
I0
I0
I0
I0
I0
I0
I0
I100
I100
I100
I100
I100
I100
I100
I100
I100
I100
I100
I0
I0
I0
I0
I0
I0
I0
I0
I0
I0
I0
I0
I0
I0
I0
I0
I0
I0
I0
I0
I0
I0
I0
I0
I0
I0
I0
I0
I0
I0
I0
I0
I0
I0
I0
I0
I0
I0
I0
I0
I0
I0
I0
I0
I0
I0
I0
I0
I0
I0
I0
I0
I0
I0
I0
I0
I0
I0
I0
I0
I0
I0
I0
I0
I0
I0
I0
I0
I0
I0
I0
I0
I0
I0
I0
I0
I0
I0
I0
I0
I0
I0
I0
I0
I0
I0
I0
I0
I0
I100
I100
I100
I100
I100
I100
I100
I100
I100
I100
I100
I0
I0
I0
I0
I0
I0
I0
I0
I0
I0
I0
I0
I0
I0
I0
I0
I0
I0
I0
I0
I0
I0
I0
I0
I0
I0
I0
I0
I0
I0
I0
I0
I0
I0
I0
I0
I0
I0
I0
I0
I0
I0
I0
I0
I-1
I0
I0
I0
I0
I0
I0
I0
I0
I0
I0
I0
I0
I0
I0
I0
I0
I0
I0
I0
I0
I0
I0
I0
I0
I0
I0
I0
I0
I0
I0
I0
I0
I0
I0
I0
I0
I0
I0
I0
I0
I0
I0
I0
I0
I0
I100
I100
I100
I100
I100
I100
I100
I100
I100
I100
I0
I0
I0
I0
I0
I0
I0
I0
I0
I0
I0
I0
I0
I0
I0
I0
I0
I0
I0
I0
I0
I0
I0
I0
I0
I0
I0
I0
I0
I0
I0
I0
I0
I0
I0
I0
I0
I0
I0
I0
I0
I0
I0
I0
I0
I0
I0
I0
I0
I0
I0
I0
I0
I0
I0
I0
I0
I0
I0
I0
I0
I0
I0
I0
I0
I0
I0
I0
I0
I0
I0
I0
I0
I0
I0
I0
I0
I0
I0
I0
I0
I0
I0
I0
I0
I0
I0
I0
I0
I0
I100
I100
I100
I100
I100
I100
I100
I100
I100
I100
I100
I0
I0
I0
I0
I0
I0
I0
I0
I0
I0
I0
I0
I0
I0
I0
I0
I0
I0
I0
I0
I0
I0
I0
I0
I0
I0
I0
I0
I0
I0
I0
I0
I0
I0
I0
I0
I0
I0
I0
I0
I0
I0
I0
I0
I-1
I0
I0
I0
I0
I0
I0
I0
I0
I0
I0
I0
I0
I0
I0
I0
I0
I0
I0
I0
I0
I0
I0
I0
I0
I0
I0
I0
I0
I0
I0
I0
I0
I0
I0
I0
I0
I0
I0
I0
I0
I0
I0
I0
I0
I0
I0
I0
I0
I0
I0
I0
I0
I0
I0
I0
I0
I0
I0
I0
I0
I0
I0
I0
I0
I0
I0
I0
I0
I0
I0
I0
I0
I0
I0
I0
I0
I0
I0
I0
I0
I0
I0
I0
I0
I0
I0
I0
I0
I0
I0
I0
I0
I0
I0
I0
I0
I0
I0
I0
I0
I0
I0
I0
I0
I0
I0
I0
I0
I0
I0
I0
I0
I0
I0
I0
I0
I0
I0
I0
I0
I0
I0
I0
I0
I0
I0
I0
I0
I0
I0
I0
I0
I0
I0
I0
I0
I0
I0
I0
I0
I0
I0
I0
I0
I0
I0
I0
I0
I0
I0
I0
I0
I0
I0
I0
I0
I0
I0
I0
I0
I0
I0
I0
I0
I0
I0
I0
I0
I0
I0
I0
I0
I0
I0
I0
I0
I0
I0
I0
I0
I0
I0
I0
I0
I0
I0
I0
I0
I0
I0
I0
I0
I0
I0
I0
I0
I0
I0
I0
I0
I-1
I0
I0
I0
I0
I0
I0
I0
I0
I0
I0
I0
I0
I0
I0
I0
I0
I0
I0
I0
I0
I0
I0
I0
I0
I0
I0
I0
I0
I0
I0
I0
I0
I0
I0
I0
I0
I0
I0
I0
I0
I0
I0
I0
I0
I0
I0
I0
I0
I0
I0
I0
I0
I0
I0
I0
I0
I0
I0
I0
I0
I0
I0
I0
I0
I0
I0
I0
I0
I0
I0
I0
I0
I0
I0
I0
I0
I0
I0
I0
I0
I0
I0
I0
I0
I0
I0
I0
I0
I0
I0
I0
I0
I0
I0
I0
I0
I0
I0
I0
I0
I0
I0
I0
I0
I0
I0
I0
I0
I0
I0
I0
I0
I0
I0
I0
I0
I0
I0
I0
I0
I0
I0
I0
I0
I0
I0
I0
I0
I0
I0
I0
I0
I0
I0
I0
I0
I0
I0
I0
I0
I0
I0
I0
I0
I0
I0
I0
I0
I0
I0
I0
I0
I0
I0
I0
I0
I0
I0
I0
I0
I0
I0
I0
I0
I0
I0
I0
I0
I0
I0
I0
I0
I0
I0
I0
I0
I0
I0
I0
I0
I0
I0
I0
I0
I0
I0
I0
I0
I0
I0
I0
I0
I0
I0
I0
I0
I0
I0
I0
I0
I-1
I0
I0
I0
I0
I0
I0
I0
I0
I0
I0
I0
I0
I0
I0
I0
I0
I0
I0
I0
I0
I0
I0
I0
I0
I0
I0
I0
I0
I0
I0
I0
I0
I0
I0
I0
I0
I0
I0
I0
I0
I0
I0
I0
I0
I0
I0
I0
I0
I0
I0
I0
I0
I0
I0
I0
I0
I0
I0
I0
I0
I0
I0
I0
I0
I0
I0
I0
I0
I0
I0
I0
I0
I0
I0
I0
I0
I0
I0
I0
I0
I0
I0
I0
I0
I0
I0
I0
I0
I0
I0
I0
I0
I0
I0
I0
I0
I0
I0
I0
I0
I0
I0
I0
I0
I0
I0
I0
I0
I0
I0
I0
I0
I0
I0
I0
I0
I0
I0
I0
I0
I0
I0
I0
I0
I0
I0
I0
I0
I0
I0
I0
I0
I0
I0
I0
I0
I0
I0
I0
I0
I0
I0
I0
I0
I0
I0
I0
I0
I0
I0
I0
I0
I0
I0
I0
I0
I0
I0
I0
I0
I0
I0
I0
I0
I0
I0
I0
I0
I0
I0
I0
I0
I0
I0
I0
I0
I0
I0
I0
I0
I0
I0
I0
I0
I0
I0
I0
I0
I0
I0
I0
I0
I0
I0
I0
I0
I0
I0
I0
I0
I-1
I0
I0
I0
I0
I0
I0
I0
I0
I0
I0
I0
I0
I0
I0
I0
I0
I0
I0
I0
I0
I0
I0
I0
I0
I0
I0
I0
I0
I0
I0
I0
I0
I0
I0
I0
I0
I0
I0
I0
I0
I0
I0
I0
I0
I0
I0
I0
I0
I0
I0
I0
I0
I0
I0
I0
I0
I0
I0
I0
I0
I0
I0
I0
I0
I0
I0
I0
I0
I0
I0
I0
I0
I0
I0
I0
I0
I0
I0
I0
I0
I0
I0
I0
I0
I0
I0
I0
I0
I0
I0
I0
I0
I0
I0
I0
I0
I0
I0
I0
I0
I0
I0
I0
I0
I0
I0
I0
I0
I0
I0
I0
I0
I0
I0
I0
I0
I0
I0
I0
I0
I0
I0
I0
I0
I0
I0
I0
I0
I0
I0
I0
I0
I0
I0
I0
I0
I0
I0
I0
I0
I0
I0
I0
I0
I0
I0
I0
I0
I0
I0
I0
I0
I0
I0
I0
I0
I0
I0
I0
I0
I0
I0
I0
I0
I0
I0
I0
I0
I0
I0
I0
I0
I0
I0
I0
I0
I0
I0
I0
I0
I0
I0
I0
I0
I0
I0
I0
I0
I0
I0
I0
I0
I0
I0
I0
I0
I0
I0
I0
I0
I-1
I0
I0
I0
I0
I0
I0
I0
I0
I0
I0
I0
I0
I0
I0
I0
I0
I0
I0
I0
I0
I0
I0
I0
I0
I0
I0
I0
I0
I0
I0
I0
I0
I0
I0
I0
I0
I0
I0
I0
I0
I0
I0
I0
I0
I0
I0
I0
I0
I0
I0
I0
I0
I0
I0
I0
I0
I0
I0
I0
I0
I0
I0
I0
I0
I0
I0
I0
I0
I0
I0
I0
I0
I0
I0
I0
I0
I0
I0
I0
I0
I0
I0
I0
I0
I0
I0
I0
I0
I0
I0
I0
I0
I0
I0
I0
I0
I0
I0
I0
I0
I0
I0
I0
I0
I0
I0
I0
I0
I0
I0
I0
I0
I0
I0
I0
I0
I0
I0
I0
I0
I0
I0
I0
I0
I0
I0
I0
I0
I0
I0
I0
I0
I0
I0
I0
I0
I0
I0
I0
I0
I0
I0
I0
I0
I0
I0
I0
I0
I0
I0
I0
I0
I0
I0
I0
I0
I0
I0
I0
I0
I0
I0
I0
I0
I0
I0
I0
I0
I0
I0
I0
I0
I0
I0
I0
I0
I0
I0
I0
I0
I0
I0
I0
I0
I0
I0
I0
I0
I0
I0
I0
I0
I0
I0
I0
I0
I0
I0
I0
I0
I-1
I0
I0
I0
I0
I0
I0
I0
I0
I0
I0
I0
I0
I0
I0
I0
I0
I0
I0
I0
I0
I0
I0
I0
I0
I0
I0
I0
I0
I0
I0
I0
I0
I0
I0
I0
I0
I0
I0
I0
I0
I0
I0
I0
I0
I0
I0
I0
I0
I0
I0
I0
I0
I0
I0
I0
I0
I0
I0
I0
I0
I0
I0
I0
I0
I0
I0
I0
I0
I0
I0
I0
I0
I0
I0
I0
I0
I0
I0
I0
I0
I0
I0
I0
I0
I0
I0
I0
I0
I0
I0
I0
I0
I0
I0
I0
I0
I0
I0
I0
I0
I0
I0
I0
I0
I0
I0
I0
I0
I0
I0
I0
I0
I0
I0
I0
I0
I0
I0
I0
I0
I0
I0
I0
I0
I0
I0
I0
I0
I0
I0
I0
I0
I0
I0
I0
I0
I0
I0
I0
I0
I0
I0
I0
I0
I0
I0
I0
I0
I0
I0
I0
I0
I0
I0
I0
I0
I0
I0
I0
I0
I0
I0
I0
I0
I0
I0
I0
I0
I0
I0
I0
I0
I0
I0
I0
I0
I0
I0
I0
I0
I0
I0
I0
I0
I0
I0
I0
I0
I0
I0
I0
I0
I0
I0
I0
I0
I0
I0
I0
I0
I-1
I0
I0
I0
I0
I0
I0
I0
I0
I0
I0
I0
I0
I0
I0
I0
I0
I0
I0
I0
I0
I0
I0
I0
I0
I0
I0
I0
I0
I0
I0
I0
I0
I0
I0
I0
I0
I0
I0
I0
I0
I0
I0
I0
I0
I0
I0
I0
I0
I0
I0
I0
I0
I0
I0
I0
I0
I0
I0
I0
I0
I0
I0
I0
I0
I0
I0
I0
I0
I0
I0
I0
I0
I0
I0
I0
I0
I0
I0
I0
I0
I0
I0
I0
I0
I0
I0
I0
I0
I0
I0
I0
I0
I0
I0
I0
I0
I0
I0
I0
I0
I0
I0
I0
I0
I0
I0
I0
I0
I0
I0
I0
I0
I0
I0
I0
I0
I0
I0
I0
I0
I0
I0
I0
I0
I0
I0
I0
I0
I0
I0
I0
I0
I0
I0
I0
I0
I0
I0
I0
I0
I0
I0
I0
I0
I0
I0
I0
I0
I0
I0
I0
I0
I0
I0
I0
I0
I0
I0
I0
I0
I0
I0
I0
I0
I0
I0
I0
I0
I0
I0
I0
I0
I0
I0
I0
I0
I0
I0
I0
I0
I0
I0
I0
I0
I0
I0
I0
I0
I0
I0
I0
I0
I0
I0
I0
I0
I0
I0
I0
I0
I-1
I0
I0
I0
I0
I0
I0
I0
I0
I0
I0
I0
I0
I0
I0
I0
I0
I0
I0
I0
I0
I0
I0
I0
I0
I0
I0
I0
I0
I0
I0
I0
I0
I0
I0
I0
I0
I0
I0
I0
I0
I0
I0
I0
I0
I0
I0
I0
I0
I0
I0
I0
I0
I0
I0
I0
I0
I0
I0
I0
I0
I0
I0
I0
I0
I0
I0
I0
I0
I0
I0
I0
I0
I0
I0
I0
I0
I0
I0
I0
I0
I0
I0
I0
I0
I0
I0
I0
I0
I0
I0
I0
I0
I0
I0
I0
I0
I0
I0
I0
I0
I0
I0
I0
I0
I0
I0
I0
I0
I0
I0
I0
I0
I0
I0
I0
I0
I0
I0
I0
I0
I0
I0
I0
I0
I0
I0
I0
I0
I0
I0
I0
I0
I0
I0
I0
I0
I0
I0
I0
I0
I0
I0
I0
I0
I0
I0
I0
I0
I0
I0
I0
I0
I0
I0
I0
I0
I0
I0
I0
I0
I0
I0
I0
I0
I0
I0
I0
I0
I0
I0
I0
I0
I0
I0
I0
I0
I0
I0
I0
I0
I0
I0
I0
I0
I0
I0
I0
I0
I0
I0
I0
I0
I0
I0
I0
I0
I0
I0
I0
I0
I-1
I0
I0
I0
I0
I0
I0
I0
I0
I0
I0
I0
I0
I0
I0
I0
I0
I0
I0
I0
I0
I0
I0
I0
I0
I0
I0
I0
I0
I0
I0
I0
I0
I0
I0
I0
I0
I0
I0
I0
I0
I0
I0
I0
I0
I0
I0
I0
I0
I0
I0
I0
I0
I0
I0
I0
I0
I0
I0
I0
I0
I0
I0
I0
I0
I0
I0
I0
I0
I0
I0
I0
I0
I0
I0
I0
I0
I0
I0
I0
I0
I0
I0
I0
I0
I0
I0
I0
I0
I0
I0
I0
I0
I0
I0
I0
I0
I0
I0
I0
I0
I0
I0
I0
I0
I0
I0
I0
I0
I0
I0
I0
I0
I0
I0
I0
I0
I0
I0
I0
I0
I0
I0
I0
I0
I0
I0
I0
I0
I0
I0
I0
I0
I0
I0
I0
I0
I0
I0
I0
I0
I0
I0
I0
I0
I0
I0
I0
I0
I0
I0
I0
I0
I0
I0
I0
I0
I0
I0
I0
I0
I0
I0
I0
I0
I0
I0
I0
I0
I0
I0
I0
I0
I0
I0
I0
I0
I0
I0
I0
I0
I0
I0
I0
I0
I0
I0
I0
I0
I0
I0
I0
I0
I0
I0
I0
I0
I0
I0
I0
I0
I-1
I0
I0
I0
I0
I0
I0
I0
I0
I0
I0
I0
I0
I0
I0
I0
I0
I0
I0
I0
I0
I0
I0
I0
I0
I0
I0
I0
I0
I0
I0
I0
I0
I0
I0
I0
I0
I0
I0
I0
I0
I0
I0
I0
I0
I0
I0
I0
I0
I0
I0
I0
I0
I0
I0
I0
I0
I0
I0
I0
I0
I0
I0
I0
I0
I0
I0
I0
I0
I0
I0
I0
I0
I0
I0
I0
I0
I0
I0
I0
I0
I0
I0
I0
I0
I0
I0
I0
I0
I0
I0
I0
I0
I0
I0
I0
I0
I0
I0
I0
I0
I0
I0
I0
I0
I0
I0
I0
I0
I0
I0
I0
I0
I0
I0
I0
I0
I0
I0
I0
I0
I0
I0
I0
I0
I0
I0
I0
I0
I0
I0
I0
I0
I0
I0
I0
I0
I0
I0
I0
I0
I0
I0
I0
I0
I0
I0
I0
I0
I0
I0
I0
I0
I0
I0
I0
I0
I0
I0
I0
I0
I0
I0
I0
I0
I0
I0
I0
I0
I0
I0
I0
I0
I0
I0
I0
I0
I0
I0
I0
I0
I0
I0
I0
I0
I0
I0
I0
I0
I0
I0
I0
I0
I0
I0
I0
I0
I0
I0
I0
I0
I-1
I0
I0
I0
I0
I0
I0
I0
I0
I0
I0
I0
I0
I0
I0
I0
I0
I0
I0
I0
I0
I0
I0
I0
I0
I0
I0
I0
I0
I0
I0
I0
I0
I0
I0
I0
I0
I0
I0
I0
I0
I0
I0
I0
I0
I0
I0
I0
I0
I0
I0
I0
I0
I0
I0
I0
I0
I0
I0
I0
I0
I0
I0
I0
I0
I0
I0
I0
I0
I0
I0
I0
I0
I0
I0
I0
I0
I0
I0
I0
I0
I0
I0
I0
I0
I0
I0
I0
I0
I0
I0
I0
I0
I0
I0
I0
I0
I0
I0
I0
I0
I0
I0
I0
I0
I0
I0
I0
I0
I0
I0
I0
I0
I0
I0
I0
I0
I0
I0
I0
I0
I0
I0
I0
I0
I0
I0
I0
I0
I0
I0
I0
I0
I0
I0
I0
I0
I0
I0
I0
I0
I0
I0
I0
I0
I0
I0
I0
I0
I0
I0
I0
I0
I0
I0
I0
I0
I0
I0
I0
I0
I0
I0
I0
I0
I0
I0
I0
I0
I0
I0
I0
I0
I0
I0
I0
I0
I0
I0
I0
I0
I0
I0
I0
I0
I0
I0
I0
I0
I0
I0
I0
I0
I0
I0
I0
I0
I0
I0
I0
I0
I-1
I0
I0
I0
I0
I0
I0
I0
I0
I0
I0
I0
I0
I0
I0
I0
I0
I0
I0
I0
I0
I0
I0
I0
I0
I0
I0
I0
I0
I0
I0
I0
I0
I0
I0
I0
I0
I0
I0
I0
I0
I0
I0
I0
I0
I0
I0
I0
I0
I0
I0
I0
I0
I0
I0
I0
I0
I0
I0
I0
I0
I0
I0
I0
I0
I0
I0
I0
I0
I0
I0
I0
I0
I0
I0
I0
I0
I0
I0
I0
I0
I0
I0
I0
I0
I0
I0
I0
I0
I0
I0
I0
I0
I0
I0
I0
I0
I0
I0
I0
I0
I0
I0
I0
I0
I0
I0
I0
I0
I0
I0
I0
I0
I0
I0
I0
I0
I0
I0
I0
I0
I0
I0
I0
I0
I0
I0
I0
I0
I0
I0
I0
I0
I0
I0
I0
I0
I0
I0
I0
I0
I0
I0
I0
I0
I0
I0
I0
I0
I0
I0
I0
I0
I0
I0
I0
I0
I0
I0
I0
I0
I0
I0
I0
I0
I0
I0
I0
I0
I0
I0
I0
I0
I0
I0
I0
I0
I0
I0
I0
I0
I0
I0
I0
I0
I0
I0
I0
I0
I0
I0
I0
I0
I0
I0
I0
I0
I0
I0
I0
I0
I-1
I0
I0
I0
I0
I0
I0
I0
I0
I0
I0
I0
I0
I0
I0
I0
I0
I0
I0
I0
I0
I0
I0
I0
I0
I0
I0
I0
I0
I0
I0
I0
I0
I0
I0
I0
I0
I0
I0
I0
I0
I0
I0
I0
I0
I0
I0
I0
I0
I0
I0
I0
I0
I0
I0
I0
I0
I0
I0
I0
I0
I0
I0
I0
I0
I0
I0
I0
I0
I0
I0
I0
I0
I0
I0
I0
I0
I0
I0
I0
I0
I0
I0
I0
I0
I0
I0
I0
I0
I0
I0
I0
I0
I0
I0
I0
I0
I0
I0
I0
I0
I0
I0
I0
I0
I0
I0
I0
I0
I0
I0
I0
I0
I0
I0
I0
I0
I0
I0
I0
I0
I0
I0
I0
I0
I0
I0
I0
I0
I0
I0
I0
I0
I0
I0
I0
I0
I0
I0
I0
I0
I0
I0
I0
I0
I0
I0
I0
I0
I0
I0
I0
I0
I0
I0
I0
I0
I0
I0
I0
I0
I0
I0
I0
I0
I0
I0
I0
I0
I0
I0
I0
I0
I0
I0
I0
I0
I0
I0
I0
I0
I0
I0
I0
I0
I0
I0
I0
I0
I0
I0
I0
I0
I0
I0
I0
I0
I0
I0
I0
I0
I-1
I0
I0
I0
I0
I0
I0
I0
I0
I0
I0
I0
I0
I0
I0
I0
I0
I0
I0
I0
I0
I0
I0
I0
I0
I0
I0
I0
I0
I0
I0
I0
I0
I0
I0
I0
I0
I0
I0
I0
I0
I0
I0
I0
I0
I0
I0
I0
I0
I0
I0
I0
I0
I0
I0
I0
I0
I0
I0
I0
I0
I0
I0
I0
I0
I0
I0
I0
I0
I0
I0
I0
I0
I0
I0
I0
I0
I0
I0
I0
I0
I0
I0
I0
I0
I0
I0
I0
I0
I0
I0
I0
I0
I0
I0
I0
I0
I0
I0
I0
I0
I0
I0
I0
I0
I0
I0
I0
I0
I0
I0
I0
I0
I0
I0
I0
I0
I0
I0
I0
I0
I0
I0
I0
I0
I0
I0
I0
I0
I0
I0
I0
I0
I0
I0
I0
I0
I0
I0
I0
I0
I0
I0
I0
I0
I0
I0
I0
I0
I0
I0
I0
I0
I0
I0
I0
I0
I0
I0
I0
I0
I0
I0
I0
I0
I0
I0
I0
I0
I0
I0
I0
I0
I0
I0
I0
I0
I0
I0
I0
I0
I0
I0
I0
I0
I0
I0
I0
I0
I0
I0
I0
I0
I0
I0
I0
I0
I0
I0
I0
I0
I-1
I0
I0
I0
I0
I0
I0
I0
I0
I0
I0
I0
I0
I0
I0
I0
I0
I0
I0
I0
I0
I0
I0
I0
I0
I0
I0
I0
I0
I0
I0
I0
I0
I0
I0
I0
I0
I0
I0
I0
I0
I0
I0
I0
I0
I0
I0
I0
I0
I0
I0
I0
I0
I0
I0
I0
I0
I0
I0
I0
I0
I0
I0
I0
I0
I0
I0
I0
I0
I0
I0
I0
I0
I0
I0
I0
I0
I0
I0
I0
I0
I0
I0
I0
I0
I0
I0
I0
I0
I0
I0
I0
I0
I0
I0
I0
I0
I0
I0
I0
I0
I0
I0
I0
I0
I0
I0
I0
I0
I0
I0
I0
I0
I0
I0
I0
I0
I0
I0
I0
I0
I0
I0
I0
I0
I0
I0
I0
I0
I0
I0
I0
I0
I0
I0
I0
I0
I0
I0
I0
I0
I0
I0
I0
I0
I0
I0
I0
I0
I0
I0
I0
I0
I0
I0
I0
I0
I0
I0
I0
I0
I0
I0
I0
I0
I0
I0
I0
I0
I0
I0
I0
I0
I0
I0
I0
I0
I0
I0
I0
I0
I0
I0
I0
I0
I0
I0
I0
I0
I0
I0
I0
I0
I0
I0
I0
I0
I0
I0
I0
I0
I-1
I0
I0
I0
I0
I0
I0
I0
I0
I0
I0
I0
I0
I0
I0
I0
I0
I0
I0
I0
I0
I0
I0
I0
I0
I0
I0
I0
I0
I0
I0
I0
I0
I0
I0
I0
I0
I0
I0
I0
I0
I0
I0
I0
I0
I0
I0
I0
I0
I0
I0
I0
I0
I0
I0
I0
I0
I0
I0
I0
I0
I0
I0
I0
I0
I0
I0
I0
I0
I0
I0
I0
I0
I0
I0
I0
I0
I0
I0
I0
I0
I0
I0
I0
I0
I0
I0
I0
I0
I0
I0
I0
I0
I0
I0
I0
I0
I0
I0
I0
I0
I0
I0
I0
I0
I0
I0
I0
I0
I0
I0
I0
I0
I0
I0
I0
I0
I0
I0
I0
I0
I0
I0
I0
I0
I0
I0
I0
I0
I0
I0
I0
I0
I0
I0
I0
I0
I0
I0
I0
I0
I0
I0
I0
I0
I0
I0
I0
I0
I0
I0
I0
I0
I0
I0
I0
I0
I0
I0
I0
I0
I0
I0
I0
I0
I0
I0
I0
I0
I0
I0
I0
I0
I0
I0
I0
I0
I0
I0
I0
I0
I0
I0
I0
I0
I0
I0
I0
I0
I0
I0
I0
I0
I0
I0
I0
I0
I0
I0
I0
I0
I-1
I0
I0
I0
I0
I0
I0
I0
I0
I0
I0
I0
I0
I0
I0
I0
I0
I0
I0
I0
I0
I0
I0
I0
I0
I0
I0
I0
I0
I0
I0
I0
I0
I0
I0
I0
I0
I0
I0
I0
I0
I0
I0
I0
I0
I0
I0
I0
I0
I0
I0
I0
I0
I0
I0
I0
I0
I0
I0
I0
I0
I0
I0
I0
I0
I0
I0
I0
I0
I0
I0
I0
I0
I0
I0
I0
I0
I0
I0
I0
I0
I0
I0
I0
I0
I0
I0
I0
I0
I0
I0
I0
I0
I0
I0
I0
I0
I0
I0
I0
I0
I0
I0
I0
I0
I0
I0
I0
I0
I0
I0
I0
I0
I0
I0
I0
I0
I0
I0
I0
I0
I0
I0
I0
I0
I0
I0
I0
I0
I0
I0
I0
I0
I0
I0
I0
I0
I0
I0
I0
I0
I0
I0
I0
I0
I0
I0
I0
I0
I0
I0
I0
I0
I0
I0
I0
I0
I0
I0
I0
I0
I0
I0
I0
I0
I0
I0
I0
I0
I0
I0
I0
I0
I0
I0
I0
I0
I0
I0
I0
I0
I0
I0
I0
I0
I0
I0
I0
I0
I0
I0
I0
I0
I0
I0
I0
I0
I0
I0
I0
I0
I-1
I0
I0
I0
I0
I0
I0
I0
I0
I0
I0
I0
I0
I0
I0
I0
I0
I0
I0
I0
I0
I0
I0
I0
I0
I0
I0
I0
I0
I0
I0
I0
I0
I0
I0
I0
I0
I0
I0
I0
I0
I0
I0
I0
I0
I0
I0
I0
I0
I0
I0
I0
I0
I0
I0
I0
I0
I0
I0
I0
I0
I0
I0
I0
I0
I0
I0
I0
I0
I0
I0
I0
I0
I0
I0
I0
I0
I0
I0
I0
I0
I0
I0
I0
I0
I0
I0
I0
I0
I0
I0
I0
I0
I0
I0
I0
I0
I0
I0
I0
I0
I0
I0
I0
I0
I0
I0
I0
I0
I0
I0
I0
I0
I0
I0
I0
I0
I0
I0
I0
I0
I0
I0
I0
I0
I0
I0
I0
I0
I0
I0
I0
I0
I0
I0
I0
I0
I0
I0
I0
I0
I0
I0
I0
I0
I0
I0
I0
I0
I0
I0
I0
I0
I0
I0
I0
I0
I0
I0
I0
I0
I0
I0
I0
I0
I0
I0
I0
I0
I0
I0
I0
I0
I0
I0
I0
I0
I0
I0
I0
I0
I0
I0
I0
I0
I0
I0
I0
I0
I0
I0
I0
I0
I0
I0
I0
I0
I0
I0
I0
I0
I-1
I0
I0
I0
I0
I0
I0
I0
I0
I0
I0
I0
I0
I0
I0
I0
I0
I0
I0
I0
I0
I0
I0
I0
I0
I0
I0
I0
I0
I0
I0
I0
I0
I0
I0
I0
I0
I0
I0
I0
I0
I0
I0
I0
I0
I0
I0
I0
I0
I0
I0
I0
I0
I0
I0
I0
I0
I0
I0
I0
I0
I0
I0
I0
I0
I0
I0
I0
I0
I0
I0
I0
I0
I0
I0
I0
I0
I0
I0
I0
I0
I0
I0
I0
I0
I0
I0
I0
I0
I0
I0
I0
I0
I0
I0
I0
I0
I0
I0
I0
I0
I0
I0
I0
I0
I0
I0
I0
I0
I0
I0
I0
I0
I0
I0
I0
I0
I0
I0
I0
I0
I0
I0
I0
I0
I0
I0
I0
I0
I0
I0
I0
I0
I0
I0
I0
I0
I0
I0
I0
I0
I0
I0
I0
I0
I0
I0
I0
I0
I0
I0
I0
I0
I0
I0
I0
I0
I0
I0
I0
I0
I0
I0
I0
I0
I0
I0
I0
I0
I0
I0
I0
I0
I0
I0
I0
I0
I0
I0
I0
I0
I0
I0
I0
I0
I0
I0
I0
I0
I0
I0
I0
I0
I0
I0
I0
I0
I0
I0
I0
I0
I-1
I0
I0
I0
I0
I0
I0
I0
I0
I0
I0
I0
I0
I0
I0
I0
I0
I0
I0
I0
I0
I0
I0
I0
I0
I0
I0
I0
I0
I0
I0
I0
I0
I0
I0
I0
I0
I0
I0
I0
I0
I0
I0
I0
I0
I0
I0
I0
I0
I0
I0
I0
I0
I0
I0
I0
I0
I0
I0
I0
I0
I0
I0
I0
I0
I0
I0
I0
I0
I0
I0
I0
I0
I0
I0
I0
I0
I0
I0
I0
I0
I0
I0
I0
I0
I0
I0
I0
I0
I0
I0
I0
I0
I0
I0
I0
I0
I0
I0
I0
I0
I0
I0
I0
I0
I0
I0
I0
I0
I0
I0
I0
I0
I0
I0
I0
I0
I0
I0
I0
I0
I0
I0
I0
I0
I0
I0
I0
I0
I0
I0
I0
I0
I0
I0
I0
I0
I0
I0
I0
I0
I0
I0
I0
I0
I0
I0
I0
I0
I0
I0
I0
I0
I0
I0
I0
I0
I0
I0
I0
I0
I0
I0
I0
I0
I0
I0
I0
I0
I0
I0
I0
I0
I0
I0
I0
I0
I0
I0
I0
I0
I0
I0
I0
I0
I0
I0
I0
I0
I0
I0
I0
I0
I0
I0
I0
I0
I0
I0
I0
I0
I-1
I0
I0
I0
I0
I0
I0
I0
I0
I0
I0
I0
I0
I0
I0
I0
I0
I0
I0
I0
I0
I0
I0
I0
I0
I0
I0
I0
I0
I0
I0
I0
I0
I0
I0
I0
I0
I0
I0
I0
I0
I0
I0
I0
I0
I0
I0
I0
I0
I0
I0
I0
I0
I0
I0
I0
I0
I0
I0
I0
I0
I0
I0
I0
I0
I0
I0
I0
I0
I0
I0
I0
I0
I0
I0
I0
I0
I0
I0
I0
I0
I0
I0
I0
I0
I0
I0
I0
I0
I0
I0
I0
I0
I0
I0
I0
I0
I0
I0
I0
I0
I0
I0
I0
I0
I0
I0
I0
I0
I0
I0
I0
I0
I0
I0
I0
I0
I0
I0
I0
I0
I0
I0
I0
I0
I0
I0
I0
I0
I0
I0
I0
I0
I0
I0
I0
I0
I0
I0
I0
I0
I0
I0
I0
I0
I0
I0
I0
I0
I0
I0
I0
I0
I0
I0
I0
I0
I0
I0
I0
I0
I0
I0
I0
I0
I0
I0
I0
I0
I0
I0
I0
I0
I0
I0
I0
I0
I0
I0
I0
I0
I0
I0
I0
I0
I0
I0
I0
I0
I0
I0
I0
I0
I0
I0
I0
I0
I0
I0
I0
I0
I-1
I0
I0
I0
I0
I0
I0
I0
I0
I0
I0
I0
I0
I0
I0
I0
I0
I0
I0
I0
I0
I0
I0
I0
I0
I0
I0
I0
I0
I0
I0
I0
I0
I0
I0
I0
I0
I0
I0
I0
I0
I0
I0
I0
I0
I0
I0
I0
I0
I0
I0
I0
I0
I0
I0
I0
I0
I0
I0
I0
I0
I0
I0
I0
I0
I0
I0
I0
I0
I0
I0
I0
I0
I0
I0
I0
I0
I0
I0
I0
I0
I0
I0
I0
I0
I0
I0
I0
I0
I0
I0
I0
I0
I0
I0
I0
I0
I0
I0
I0
I0
I0
I0
I0
I0
I0
I0
I0
I0
I0
I0
I0
I0
I0
I0
I0
I0
I0
I0
I0
I0
I0
I0
I0
I0
I0
I0
I0
I0
I0
I0
I0
I0
I0
I0
I0
I0
I0
I0
I0
I0
I0
I0
I0
I0
I0
I0
I0
I0
I0
I0
I0
I0
I0
I0
I0
I0
I0
I0
I0
I0
I0
I0
I0
I0
I0
I0
I0
I0
I0
I0
I0
I0
I0
I0
I0
I0
I0
I0
I0
I0
I0
I0
I0
I0
I0
I0
I0
I0
I0
I0
I0
I0
I0
I0
I0
I0
I0
I0
I0
I0
I-1
I0
I0
I0
I0
I0
I0
I0
I0
I0
I0
I0
I0
I0
I0
I0
I0
I0
I0
I0
I0
I0
I0
I0
I0
I0
I0
I0
I0
I0
I0
I0
I0
I0
I0
I0
I0
I0
I0
I0
I0
I0
I0
I0
I0
I0
I0
I0
I0
I0
I0
I0
I0
I0
I0
I0
I0
I0
I0
I0
I0
I0
I0
I0
I0
I0
I0
I0
I0
I0
I0
I0
I0
I0
I0
I0
I0
I0
I0
I0
I0
I0
I0
I0
I0
I0
I0
I0
I0
I0
I0
I0
I0
I0
I0
I0
I0
I0
I0
I0
I0
I0
I0
I0
I0
I0
I0
I0
I0
I0
I0
I0
I0
I0
I0
I0
I0
I0
I0
I0
I0
I0
I0
I0
I0
I0
I0
I0
I0
I0
I0
I0
I0
I0
I0
I0
I0
I0
I0
I0
I0
I0
I0
I0
I0
I0
I0
I0
I0
I0
I0
I0
I0
I0
I0
I0
I0
I0
I0
I0
I0
I0
I0
I0
I0
I0
I0
I0
I0
I0
I0
I0
I0
I0
I0
I0
I0
I0
I0
I0
I0
I0
I0
I0
I0
I0
I0
I0
I0
I0
I0
I0
I0
I0
I0
I0
I0
I0
I0
I0
I0
I-1
I0
I0
I0
I0
I0
I0
I0
I0
I0
I0
I0
I0
I0
I0
I0
I0
I0
I0
I0
I0
I0
I0
I0
I0
I0
I0
I0
I0
I0
I0
I0
I0
I0
I0
I0
I0
I0
I0
I0
I0
I0
I0
I0
I0
I0
I0
I0
I0
I0
I0
I0
I0
I0
I0
I0
I0
I0
I0
I0
I0
I0
I0
I0
I0
I0
I0
I0
I0
I0
I0
I0
I0
I0
I0
I0
I0
I0
I0
I0
I0
I0
I0
I0
I0
I0
I0
I0
I0
I0
I0
I0
I0
I0
I0
I0
I0
I0
I0
I0
I0
I0
I0
I0
I0
I0
I0
I0
I0
I0
I0
I0
I0
I0
I0
I0
I0
I0
I0
I0
I0
I0
I0
I0
I0
I0
I0
I0
I0
I0
I0
I0
I0
I0
I0
I0
I0
I0
I0
I0
I0
I0
I0
I0
I0
I0
I0
I0
I0
I0
I0
I0
I0
I0
I0
I0
I0
I0
I0
I0
I0
I0
I0
I0
I0
I0
I0
I0
I0
I0
I0
I0
I0
I0
I0
I0
I0
I0
I0
I0
I0
I0
I0
I0
I0
I0
I0
I0
I0
I0
I0
I0
I0
I0
I0
I0
I0
I0
I0
I0
I0
I-1
I0
I0
I0
I0
I0
I0
I0
I0
I0
I0
I0
I0
I0
I0
I0
I0
I0
I0
I0
I0
I0
I0
I0
I0
I0
I0
I0
I0
I0
I0
I0
I0
I0
I0
I0
I0
I0
I0
I0
I0
I0
I0
I0
I0
I0
I0
I0
I0
I0
I0
I0
I0
I0
I0
I0
I0
I0
I0
I0
I0
I0
I0
I0
I0
I0
I0
I0
I0
I0
I0
I0
I0
I0
I0
I0
I0
I0
I0
I0
I0
I0
I0
I0
I0
I0
I0
I0
I0
I0
I0
I0
I0
I0
I0
I0
I0
I0
I0
I0
I0
I0
I0
I0
I0
I0
I0
I0
I0
I0
I0
I0
I0
I0
I0
I0
I0
I0
I0
I0
I0
I0
I0
I0
I0
I0
I0
I0
I0
I0
I0
I0
I0
I0
I0
I0
I0
I0
I0
I0
I0
I0
I0
I0
I0
I0
I0
I0
I0
I0
I0
I0
I0
I0
I0
I0
I0
I0
I0
I0
I0
I0
I0
I0
I0
I0
I0
I0
I0
I0
I0
I0
I0
I0
I0
I0
I0
I0
I0
I0
I0
I0
I0
I0
I0
I0
I0
I0
I0
I0
I0
I0
I0
I0
I0
I0
I0
I0
I0
I0
I0
I-1
I0
I0
I0
I0
I0
I0
I0
I0
I0
I0
I0
I0
I0
I0
I0
I0
I0
I0
I0
I0
I0
I0
I0
I0
I0
I0
I0
I0
I0
I0
I0
I0
I0
I0
I0
I0
I0
I0
I0
I0
I0
I0
I0
I0
I0
I0
I0
I0
I0
I0
I0
I0
I0
I0
I0
I0
I0
I0
I0
I0
I0
I0
I0
I0
I0
I0
I0
I0
I0
I0
I0
I0
I0
I0
I0
I0
I0
I0
I0
I0
I0
I0
I0
I0
I0
I0
I0
I0
I0
I0
I0
I0
I0
I0
I0
I0
I0
I0
I0
I0
I0
I0
I0
I0
I0
I0
I0
I0
I0
I0
I0
I0
I0
I0
I0
I0
I0
I0
I0
I0
I0
I0
I0
I0
I0
I0
I0
I0
I0
I0
I0
I0
I0
I0
I0
I0
I0
I0
I0
I0
I0
I0
I0
I0
I0
I0
I0
I0
I0
I0
I0
I0
I0
I0
I0
I0
I0
I0
I0
I0
I0
I0
I0
I0
I0
I0
I0
I0
I0
I0
I0
I0
I0
I0
I0
I0
I0
I0
I0
I0
I0
I0
I0
I0
I0
I0
I0
I0
I0
I0
I0
I0
I0
I0
I0
I0
I0
I0
I0
I0
I-1
I0
I0
I0
I0
I0
I0
I0
I0
I0
I0
I0
I0
I0
I0
I0
I0
I0
I0
I0
I0
I0
I0
I0
I0
I0
I0
I0
I0
I0
I0
I0
I0
I0
I0
I0
I0
I0
I0
I0
I0
I0
I0
I0
I0
I0
I0
I0
I0
I0
I0
I0
I0
I0
I0
I0
I0
I0
I0
I0
I0
I0
I0
I0
I0
I0
I0
I0
I0
I0
I0
I0
I0
I0
I0
I0
I0
I0
I0
I0
I0
I0
I0
I0
I0
I0
I0
I0
I0
I0
I0
I0
I0
I0
I0
I0
I0
I0
I0
I0
I0
I0
I0
I0
I0
I0
I0
I0
I0
I0
I0
I0
I0
I0
I0
I0
I0
I0
I0
I0
I0
I0
I0
I0
I0
I0
I0
I0
I0
I0
I0
I0
I0
I0
I0
I0
I0
I0
I0
I0
I0
I0
I0
I0
I0
I0
I0
I0
I0
I0
I0
I0
I0
I0
I0
I0
I0
I0
I0
I0
I0
I0
I0
I0
I0
I0
I0
I0
I0
I0
I0
I0
I0
I0
I0
I0
I0
I0
I0
I0
I0
I0
I0
I0
I0
I0
I0
I0
I0
I0
I0
I0
I0
I0
I0
I0
I0
I0
I0
I0
I0
I-1
I0
I0
I0
I0
I0
I0
I0
I0
I0
I0
I0
I0
I0
I0
I0
I0
I0
I0
I0
I0
I0
I0
I0
I0
I0
I0
I0
I0
I0
I0
I0
I0
I0
I0
I0
I0
I0
I0
I0
I0
I0
I0
I0
I0
I0
I0
I0
I0
I0
I0
I0
I0
I0
I0
I0
I0
I0
I0
I0
I0
I0
I0
I0
I0
I0
I0
I0
I0
I0
I0
I0
I0
I0
I0
I0
I0
I0
I0
I0
I0
I0
I0
I0
I0
I0
I0
I0
I0
I0
I0
I0
I0
I0
I0
I0
I0
I0
I0
I0
I0
I0
I0
I0
I0
I0
I0
I0
I0
I0
I0
I0
I0
I0
I0
I0
I0
I0
I0
I0
I0
I0
I0
I0
I0
I0
I0
I0
I0
I0
I0
I0
I0
I0
I0
I0
I0
I0
I0
I0
I0
I0
I0
I0
I0
I0
I0
I0
I0
I0
I0
I0
I0
I0
I0
I0
I0
I0
I0
I0
I0
I0
I0
I0
I0
I0
I0
I0
I0
I0
I0
I0
I0
I0
I0
I0
I0
I0
I0
I0
I0
I0
I0
I0
I0
I0
I0
I0
I0
I0
I0
I0
I0
I0
I0
I0
I0
I0
I0
I0
I0
I-1
I0
I0
I0
I0
I0
I0
I0
I0
I0
I0
I0
I0
I0
I0
I0
I0
I0
I0
I0
I0
I0
I0
I0
I0
I0
I0
I0
I0
I0
I0
I0
I0
I0
I0
I0
I0
I0
I0
I0
I0
I0
I0
I0
I0
I0
I0
I0
I0
I0
I0
I0
I0
I0
I0
I0
I0
I0
I0
I0
I0
I0
I0
I0
I0
I0
I0
I0
I0
I0
I0
I0
I0
I0
I0
I0
I0
I0
I0
I0
I0
I0
I0
I0
I0
I0
I0
I0
I0
I0
I0
I0
I0
I0
I0
I0
I0
I0
I0
I0
I0
I0
I0
I0
I0
I0
I0
I0
I0
I0
I0
I0
I0
I0
I0
I0
I0
I0
I0
I0
I0
I0
I0
I0
I0
I0
I0
I0
I0
I0
I0
I0
I0
I0
I0
I0
I0
I0
I0
I0
I0
I0
I0
I0
I0
I0
I0
I0
I0
I0
I0
I0
I0
I0
I0
I0
I0
I0
I0
I0
I0
I0
I0
I0
I0
I0
I0
I0
I0
I0
I0
I0
I0
I0
I0
I0
I0
I0
I0
I0
I0
I0
I0
I0
I0
I0
I0
I0
I0
I0
I0
I0
I0
I0
I0
I0
I0
I0
I0
I0
I0
I-1
I0
I0
I0
I0
I0
I0
I0
I0
I0
I0
I0
I0
I0
I0
I0
I0
I0
I0
I0
I0
I0
I0
I0
I0
I0
I0
I0
I0
I0
I0
I0
I0
I0
I0
I0
I0
I0
I0
I0
I0
I0
I0
I0
I0
I0
I0
I0
I0
I0
I0
I0
I0
I0
I0
I0
I0
I0
I0
I0
I0
I0
I0
I0
I0
I0
I0
I0
I0
I0
I0
I0
I0
I0
I0
I0
I0
I0
I0
I0
I0
I0
I0
I0
I0
I0
I0
I0
I0
I0
I0
I0
I0
I0
I0
I0
I0
I0
I0
I0
I0
I0
I0
I0
I0
I0
I0
I0
I0
I0
I0
I0
I0
I0
I0
I0
I0
I0
I0
I0
I0
I0
I0
I0
I0
I0
I0
I0
I0
I0
I0
I0
I0
I0
I0
I0
I0
I0
I0
I0
I0
I0
I0
I0
I0
I0
I0
I0
I0
I0
I0
I0
I0
I0
I0
I0
I0
I0
I0
I0
I0
I0
I0
I0
I0
I0
I0
I0
I0
I0
I0
I0
I0
I0
I0
I0
I0
I0
I0
I0
I0
I0
I0
I0
I0
I0
I0
I0
I0
I0
I0
I0
I0
I0
I0
I0
I0
I0
I0
I0
I0
I-1
I0
I0
I0
I0
I0
I0
I0
I0
I0
I0
I0
I0
I0
I0
I0
I0
I0
I0
I0
I0
I0
I0
I0
I0
I0
I0
I0
I0
I0
I0
I0
I0
I0
I0
I0
I0
I0
I0
I0
I0
I0
I0
I0
I0
I0
I0
I0
I0
I0
I0
I0
I0
I0
I0
I0
I0
I0
I0
I0
I0
I0
I0
I0
I0
I0
I0
I0
I0
I0
I0
I0
I0
I0
I0
I0
I0
I0
I0
I0
I0
I0
I0
I0
I0
I0
I0
I0
I0
I0
I0
I0
I0
I0
I0
I0
I0
I0
I0
I0
I0
I0
I0
I0
I0
I0
I0
I0
I0
I0
I0
I0
I0
I0
I0
I0
I0
I0
I0
I0
I0
I0
I0
I0
I0
I0
I0
I0
I0
I0
I0
I0
I0
I0
I0
I0
I0
I0
I0
I0
I0
I0
I0
I0
I0
I0
I0
I0
I0
I0
I0
I0
I0
I0
I0
I0
I0
I0
I0
I0
I0
I0
I0
I0
I0
I0
I0
I0
I0
I0
I0
I0
I0
I0
I0
I0
I0
I0
I0
I0
I0
I0
I0
I0
I0
I0
I0
I0
I0
I0
I0
I0
I0
I0
I0
I0
I0
I0
I0
I0
I0
I-1
I0
I0
I0
I0
I0
I0
I0
I0
I0
I0
I0
I0
I0
I0
I0
I0
I0
I0
I0
I0
I0
I0
I0
I0
I0
I0
I0
I0
I0
I0
I0
I0
I0
I0
I0
I0
I0
I0
I0
I0
I0
I0
I0
I0
I0
I0
I0
I0
I0
I0
I0
I0
I0
I0
I0
I0
I0
I0
I0
I0
I0
I0
I0
I0
I0
I0
I0
I0
I0
I0
I0
I0
I0
I0
I0
I0
I0
I0
I0
I0
I0
I0
I0
I0
I0
I0
I0
I0
I0
I0
I0
I0
I0
I0
I0
I0
I0
I0
I0
I0
I0
I0
I0
I0
I0
I0
I0
I0
I0
I0
I0
I0
I0
I0
I0
I0
I0
I0
I0
I0
I0
I0
I0
I0
I0
I0
I0
I0
I0
I0
I0
I0
I0
I0
I0
I0
I0
I0
I0
I0
I0
I0
I0
I0
I0
I0
I0
I0
I0
I0
I0
I0
I0
I0
I0
I0
I0
I0
I0
I0
I0
I0
I0
I0
I0
I0
I0
I0
I0
I0
I0
I0
I0
I0
I0
I0
I0
I0
I0
I0
I0
I0
I0
I0
I0
I0
I0
I0
I0
I0
I0
I0
I0
I0
I0
I0
I0
I0
I0
I0
I-1
I0
I0
I0
I0
I0
I0
I0
I0
I0
I0
I0
I0
I0
I0
I0
I0
I0
I0
I0
I0
I0
I0
I0
I0
I0
I0
I0
I0
I0
I0
I0
I0
I0
I0
I0
I0
I0
I0
I0
I0
I0
I0
I0
I0
I0
I0
I0
I0
I0
I0
I0
I0
I0
I0
I0
I0
I0
I0
I0
I0
I0
I0
I0
I0
I0
I0
I0
I0
I0
I0
I0
I0
I0
I0
I0
I0
I0
I0
I0
I0
I0
I0
I0
I0
I0
I0
I0
I0
I0
I0
I0
I0
I0
I0
I0
I0
I0
I0
I0
I0
I0
I0
I0
I0
I0
I0
I0
I0
I0
I0
I0
I0
I0
I0
I0
I0
I0
I0
I0
I0
I0
I0
I0
I0
I0
I0
I0
I0
I0
I0
I0
I0
I0
I0
I0
I0
I0
I0
I0
I0
I0
I0
I0
I0
I0
I0
I0
I0
I0
I0
I0
I0
I0
I0
I0
I0
I0
I0
I0
I0
I0
I0
I0
I0
I0
I0
I0
I0
I0
I0
I0
I0
I0
I0
I0
I0
I0
I0
I0
I0
I0
I0
I0
I0
I0
I0
I0
I0
I0
I0
I0
I0
I0
I0
I0
I0
I0
I0
I0
I0
I-1
I0
I0
I0
I0
I0
I0
I0
I0
I0
I0
I0
I0
I0
I0
I0
I0
I0
I0
I0
I0
I0
I0
I0
I0
I0
I0
I0
I0
I0
I0
I0
I0
I0
I0
I0
I0
I0
I0
I0
I0
I0
I0
I0
I0
I0
I0
I0
I0
I0
I0
I0
I0
I0
I0
I0
I0
I0
I0
I0
I0
I0
I0
I0
I0
I0
I0
I0
I0
I0
I0
I0
I0
I0
I0
I0
I0
I0
I0
I0
I0
I0
I0
I0
I0
I0
I0
I0
I0
I0
I0
I0
I0
I0
I0
I0
I0
I0
I0
I0
I0
I0
I0
I0
I0
I0
I0
I0
I0
I0
I0
I0
I0
I0
I0
I0
I0
I0
I0
I0
I0
I0
I0
I0
I0
I0
I0
I0
I0
I0
I0
I0
I0
I0
I0
I0
I0
I0
I0
I0
I0
I0
I0
I0
I0
I0
I0
I0
I0
I0
I0
I0
I0
I0
I0
I0
I0
I0
I0
I0
I0
I0
I0
I0
I0
I0
I0
I0
I0
I0
I0
I0
I0
I0
I0
I0
I0
I0
I0
I0
I0
I0
I0
I0
I0
I0
I0
I0
I0
I0
I0
I0
I0
I0
I0
I0
I0
I0
I0
I0
I0
I-1
I0
I0
I0
I0
I0
I0
I0
I0
I0
I0
I0
I0
I0
I0
I0
I0
I0
I0
I0
I0
I0
I0
I0
I0
I0
I0
I0
I0
I0
I0
I0
I0
I0
I0
I0
I0
I0
I0
I0
I0
I0
I0
I0
I0
I0
I0
I0
I0
I0
I0
I0
I0
I0
I0
I0
I0
I0
I0
I0
I0
I0
I0
I0
I0
I0
I0
I0
I0
I0
I0
I0
I0
I0
I0
I0
I0
I0
I0
I0
I0
I0
I0
I0
I0
I0
I0
I0
I0
I0
I0
I0
I0
I0
I0
I0
I0
I0
I0
I0
I0
I0
I0
I0
I0
I0
I0
I0
I0
I0
I0
I0
I0
I0
I0
I0
I0
I0
I0
I0
I0
I0
I0
I0
I0
I0
I0
I0
I0
I0
I0
I0
I0
I0
I0
I0
I0
I0
I0
I0
I0
I0
I0
I0
I0
I0
I0
I0
I0
I0
I0
I0
I0
I0
I0
I0
I0
I0
I0
I0
I0
I0
I0
I0
I0
I0
I0
I0
I0
I0
I0
I0
I0
I0
I0
I0
I0
I0
I0
I0
I0
I0
I0
I0
I0
I0
I0
I0
I0
I0
I0
I0
I0
I0
I0
I0
I0
I0
I0
I0
I0
I-1
I0
I0
I0
I0
I0
I0
I0
I0
I0
I0
I0
I0
I0
I0
I0
I0
I0
I0
I0
I0
I0
I0
I0
I0
I0
I0
I0
I0
I0
I0
I0
I0
I0
I0
I0
I0
I0
I0
I0
I0
I0
I0
I0
I0
I0
I0
I0
I0
I0
I0
I0
I0
I0
I0
I0
I0
I0
I0
I0
I0
I0
I0
I0
I0
I0
I0
I0
I0
I0
I0
I0
I0
I0
I0
I0
I0
I0
I0
I0
I0
I0
I0
I0
I0
I0
I0
I0
I0
I0
I0
I0
I0
I0
I0
I0
I0
I0
I0
I0
I0
I0
I0
I0
I0
I0
I0
I0
I0
I0
I0
I0
I0
I0
I0
I0
I0
I0
I0
I0
I0
I0
I0
I0
I0
I0
I0
I0
I0
I0
I0
I0
I0
I0
I0
I0
I0
I0
I0
I0
I0
I0
I0
I0
I0
I0
I0
I0
I0
I0
I0
I0
I0
I0
I0
I0
I0
I0
I0
I0
I0
I0
I0
I0
I0
I0
I0
I0
I0
I0
I0
I0
I0
I0
I0
I0
I0
I0
I0
I0
I0
I0
I0
I0
I0
I0
I0
I0
I0
I0
I0
I0
I0
I0
I0
I0
I0
I0
I0
I0
I0
I-1
I0
I0
I0
I0
I0
I0
I0
I0
I0
I0
I0
I0
I0
I0
I0
I0
I0
I0
I0
I0
I0
I0
I0
I0
I0
I0
I0
I0
I0
I0
I0
I0
I0
I0
I0
I0
I0
I0
I0
I0
I0
I0
I0
I0
I0
I0
I0
I0
I0
I0
I0
I0
I0
I0
I0
I0
I0
I0
I0
I0
I0
I0
I0
I0
I0
I0
I0
I0
I0
I0
I0
I0
I0
I0
I0
I0
I0
I0
I0
I0
I0
I0
I0
I0
I0
I0
I0
I0
I0
I0
I0
I0
I0
I0
I0
I0
I0
I0
I0
I0
I0
I0
I0
I0
I0
I0
I0
I0
I0
I0
I0
I0
I0
I0
I0
I0
I0
I0
I0
I0
I0
I0
I0
I0
I0
I0
I0
I0
I0
I0
I0
I0
I0
I0
I0
I0
I0
I0
I0
I0
I0
I0
I0
I0
I0
I0
I0
I0
I0
I0
I0
I0
I0
I0
I0
I0
I0
I0
I0
I0
I0
I0
I0
I0
I0
I0
I0
I0
I0
I0
I0
I0
I0
I0
I0
I0
I0
I0
I0
I0
I0
I0
I0
I0
I0
I0
I0
I0
I0
I0
I0
I0
I0
I0
I0
I0
I0
I0
I0
I0
I-1
I0
I0
I0
I0
I0
I0
I0
I0
I0
I0
I0
I0
I0
I0
I0
I0
I0
I0
I0
I0
I0
I0
I0
I0
I0
I0
I0
I0
I0
I0
I0
I0
I0
I0
I0
I0
I0
I0
I0
I0
I0
I0
I0
I0
I0
I0
I0
I0
I0
I0
I0
I0
I0
I0
I0
I0
I0
I0
I0
I0
I0
I0
I0
I0
I0
I0
I0
I0
I0
I0
I0
I0
I0
I0
I0
I0
I0
I0
I0
I0
I0
I0
I0
I0
I0
I0
I0
I0
I0
I0
I0
I0
I0
I0
I0
I0
I0
I0
I0
I0
I0
I0
I0
I0
I0
I0
I0
I0
I0
I0
I0
I0
I0
I0
I0
I0
I0
I0
I0
I0
I0
I0
I0
I0
I0
I0
I0
I0
I0
I0
I0
I0
I0
I0
I0
I0
I0
I0
I0
I0
I0
I0
I0
I0
I0
I0
I0
I0
I0
I0
I0
I0
I0
I0
I0
I0
I0
I0
I0
I0
I0
I0
I0
I0
I0
I0
I0
I0
I0
I0
I0
I0
I0
I0
I0
I0
I0
I0
I0
I0
I0
I0
I0
I0
I0
I0
I0
I0
I0
I0
I0
I0
I0
I0
I0
I0
I0
I0
I0
I0
I-1
I0
I0
I0
I0
I0
I0
I0
I0
I0
I0
I0
I0
I0
I0
I0
I0
I0
I0
I0
I0
I0
I0
I0
I0
I0
I0
I0
I0
I0
I0
I0
I0
I0
I0
I0
I0
I0
I0
I0
I0
I0
I0
I0
I0
I0
I0
I0
I0
I0
I0
I0
I0
I0
I0
I0
I0
I0
I0
I0
I0
I0
I0
I0
I0
I0
I0
I0
I0
I0
I0
I0
I0
I0
I0
I0
I0
I0
I0
I0
I0
I0
I0
I0
I0
I0
I0
I0
I0
I0
I0
I0
I0
I0
I0
I0
I0
I0
I0
I0
I0
I0
I0
I0
I0
I0
I0
I0
I0
I0
I0
I0
I0
I0
I0
I0
I0
I0
I0
I0
I0
I0
I0
I0
I0
I0
I0
I0
I0
I0
I0
I0
I0
I0
I0
I0
I0
I0
I0
I0
I0
I0
I0
I0
I0
I0
I0
I0
I0
I0
I0
I0
I0
I0
I0
I0
I0
I0
I0
I0
I0
I0
I0
I0
I0
I0
I0
I0
I0
I0
I0
I0
I0
I0
I0
I0
I0
I0
I0
I0
I0
I0
I0
I0
I0
I0
I0
I0
I0
I0
I0
I0
I0
I0
I0
I0
I0
I0
I0
I0
I0
I-1
I0
I0
I0
I0
I0
I0
I0
I0
I0
I0
I0
I0
I0
I0
I0
I0
I0
I0
I0
I0
I0
I0
I0
I0
I0
I0
I0
I0
I0
I0
I0
I0
I0
I0
I0
I0
I0
I0
I0
I0
I0
I0
I0
I0
I0
I0
I0
I0
I0
I0
I0
I0
I0
I0
I0
I0
I0
I0
I0
I0
I0
I0
I0
I0
I0
I0
I0
I0
I0
I0
I0
I0
I0
I0
I0
I0
I0
I0
I0
I0
I0
I0
I0
I0
I0
I0
I0
I0
I0
I0
I0
I0
I0
I0
I0
I0
I100
I100
I100
I100
I100
I100
I100
I100
I100
I100
I0
I0
I0
I0
I0
I0
I0
I0
I0
I0
I0
I0
I0
I0
I0
I0
I0
I0
I0
I0
I0
I0
I0
I0
I0
I0
I0
I0
I0
I0
I0
I0
I0
I0
I0
I0
I0
I0
I0
I0
I0
I0
I0
I0
I0
I0
I0
I0
I0
I0
I0
I0
I0
I0
I0
I0
I0
I0
I0
I0
I0
I0
I0
I0
I0
I0
I0
I0
I0
I0
I0
I0
I0
I0
I0
I0
I0
I0
I0
I0
I0
I0
I0
I0
I0
I0
I0
I0
I0
I0
I0
I0
I0
I0
I-1
I0
I0
I0
I0
I0
I0
I0
I0
I0
I0
I0
I0
I0
I0
I0
I0
I0
I0
I0
I0
I0
I0
I0
I0
I0
I0
I0
I0
I0
I0
I0
I0
I0
I0
I0
I0
I0
I0
I0
I0
I0
I0
I0
I0
I0
I0
I0
I0
I0
I0
I0
I0
I0
I0
I0
I0
I0
I0
I0
I0
I0
I0
I0
I0
I0
I0
I0
I0
I0
I0
I0
I0
I0
I0
I0
I0
I0
I0
I0
I0
I0
I0
I0
I0
I0
I0
I0
I0
I0
I0
I0
I0
I0
I0
I0
I100
I100
I100
I100
I100
I100
I100
I100
I100
I100
I100
I0
I0
I0
I0
I0
I0
I0
I0
I0
I0
I0
I0
I0
I0
I0
I0
I0
I0
I0
I0
I0
I0
I0
I0
I0
I0
I0
I0
I0
I0
I0
I0
I0
I0
I0
I0
I0
I0
I0
I0
I0
I0
I0
I0
I0
I0
I0
I0
I0
I0
I0
I0
I0
I0
I0
I0
I0
I0
I0
I0
I0
I0
I0
I0
I0
I0
I0
I0
I0
I0
I0
I0
I0
I0
I0
I0
I0
I0
I0
I0
I0
I0
I0
I0
I0
I0
I0
I0
I0
I0
I0
I0
I0
I0
I-1
I0
I0
I0
I0
I0
I0
I0
I0
I0
I0
I0
I0
I0
I0
I0
I0
I0
I0
I0
I0
I0
I0
I0
I0
I0
I0
I0
I0
I0
I0
I0
I0
I0
I0
I0
I0
I0
I0
I0
I0
I0
I0
I0
I0
I0
I0
I0
I0
I0
I0
I0
I0
I0
I0
I0
I0
I0
I0
I0
I0
I0
I0
I0
I0
I0
I0
I0
I0
I0
I0
I0
I0
I0
I0
I0
I0
I0
I0
I0
I0
I0
I0
I0
I0
I0
I0
I0
I0
I0
I0
I0
I0
I0
I0
I0
I100
I100
I100
I100
I100
I100
I100
I100
I100
I100
I100
I0
I0
I0
I0
I0
I0
I0
I0
I0
I0
I0
I0
I0
I0
I0
I0
I0
I0
I0
I0
I0
I0
I0
I0
I0
I0
I0
I0
I0
I0
I0
I0
I0
I0
I0
I0
I0
I0
I0
I0
I0
I0
I0
I0
I0
I0
I0
I0
I0
I0
I0
I0
I0
I0
I0
I0
I0
I0
I0
I0
I0
I0
I0
I0
I0
I0
I0
I0
I0
I0
I0
I0
I0
I0
I0
I0
I0
I0
I0
I0
I0
I0
I0
I0
I0
I0
I0
I0
I0
I0
I0
I0
I0
I0
I-1
I0
I0
I0
I0
I0
I0
I0
I0
I0
I0
I0
I0
I0
I0
I0
I0
I0
I0
I0
I0
I0
I0
I0
I0
I0
I0
I0
I0
I0
I0
I0
I0
I0
I0
I0
I0
I0
I0
I0
I0
I0
I0
I0
I0
I0
I0
I0
I0
I0
I0
I0
I0
I0
I0
I0
I0
I0
I0
I0
I0
I0
I0
I0
I0
I0
I0
I0
I0
I0
I0
I0
I0
I0
I0
I0
I0
I0
I0
I0
I0
I0
I0
I0
I0
I0
I0
I0
I0
I0
I0
I0
I0
I0
I0
I0
I100
I100
I100
I100
I100
I100
I100
I100
I100
I100
I100
I0
I0
I0
I0
I0
I0
I0
I0
I0
I0
I0
I0
I0
I0
I0
I0
I0
I0
I0
I0
I0
I0
I0
I0
I0
I0
I0
I0
I0
I0
I0
I0
I0
I0
I0
I0
I0
I0
I0
I0
I0
I0
I0
I0
I0
I0
I0
I0
I0
I0
I0
I0
I0
I0
I0
I0
I0
I0
I0
I0
I0
I0
I0
I0
I0
I0
I0
I0
I0
I0
I0
I0
I0
I0
I0
I0
I0
I0
I0
I0
I0
I0
I0
I0
I0
I0
I0
I0
I0
I0
I0
I0
I0
I0
I-1
I0
I0
I0
I0
I0
I0
I0
I0
I0
I0
I0
I0
I0
I0
I0
I0
I0
I0
I0
I0
I0
I0
I0
I0
I0
I0
I0
I0
I0
I0
I0
I0
I0
I0
I0
I0
I0
I0
I0
I0
I0
I0
I0
I0
I0
I0
I0
I0
I0
I0
I0
I0
I0
I0
I0
I0
I0
I0
I0
I0
I0
I0
I0
I0
I0
I0
I0
I0
I0
I0
I0
I0
I0
I0
I0
I0
I0
I0
I0
I0
I0
I0
I0
I0
I0
I0
I0
I0
I0
I0
I0
I0
I0
I0
I0
I100
I100
I100
I100
I100
I100
I100
I100
I100
I100
I100
I0
I0
I0
I0
I0
I0
I0
I0
I0
I0
I0
I0
I0
I0
I0
I0
I0
I0
I0
I0
I0
I0
I0
I0
I0
I0
I0
I0
I0
I0
I0
I0
I0
I0
I0
I0
I0
I0
I0
I0
I0
I0
I0
I0
I0
I0
I0
I0
I0
I0
I0
I0
I0
I0
I0
I0
I0
I0
I0
I0
I0
I0
I0
I0
I0
I0
I0
I0
I0
I0
I0
I0
I0
I0
I0
I0
I0
I0
I0
I0
I0
I0
I0
I0
I0
I0
I0
I0
I0
I0
I0
I0
I0
I0
I-1
I0
I0
I0
I0
I0
I0
I0
I0
I0
I0
I0
I0
I0
I0
I0
I0
I0
I0
I0
I0
I0
I0
I0
I0
I0
I0
I0
I0
I0
I0
I0
I0
I0
I0
I0
I0
I0
I0
I0
I0
I0
I0
I0
I0
I0
I0
I0
I0
I0
I0
I0
I0
I0
I0
I0
I0
I0
I0
I0
I0
I0
I0
I0
I0
I0
I0
I0
I0
I0
I0
I0
I0
I0
I0
I0
I0
I0
I0
I0
I0
I0
I0
I0
I0
I0
I0
I0
I0
I0
I0
I0
I0
I0
I0
I0
I100
I100
I100
I100
I100
I100
I100
I100
I100
I100
I100
I0
I0
I0
I0
I0
I0
I0
I0
I0
I0
I0
I0
I0
I0
I0
I0
I0
I0
I0
I0
I0
I0
I0
I0
I0
I0
I0
I0
I0
I0
I0
I0
I0
I0
I0
I0
I0
I0
I0
I0
I0
I0
I0
I0
I0
I0
I0
I0
I0
I0
I0
I0
I0
I0
I0
I0
I0
I0
I0
I0
I0
I0
I0
I0
I0
I0
I0
I0
I0
I0
I0
I0
I0
I0
I0
I0
I0
I0
I0
I0
I0
I0
I0
I0
I0
I0
I0
I0
I0
I0
I0
I0
I0
I0
I-1
I0
I0
I0
I0
I0
I0
I0
I0
I0
I0
I0
I0
I0
I0
I0
I0
I0
I0
I0
I0
I0
I0
I0
I0
I0
I0
I0
I0
I0
I0
I0
I0
I0
I0
I0
I0
I0
I0
I0
I0
I0
I0
I0
I0
I0
I0
I0
I0
I0
I0
I0
I0
I0
I0
I0
I0
I0
I0
I0
I0
I0
I0
I0
I0
I0
I0
I0
I0
I0
I0
I0
I0
I0
I0
I0
I0
I0
I0
I0
I0
I0
I0
I0
I0
I0
I0
I0
I0
I0
I0
I0
I0
I0
I0
I0
I100
I100
I100
I100
I100
I100
I100
I100
I100
I100
I100
I0
I0
I0
I0
I0
I0
I0
I0
I0
I0
I0
I0
I0
I0
I0
I0
I0
I0
I0
I0
I0
I0
I0
I0
I0
I0
I0
I0
I0
I0
I0
I0
I0
I0
I0
I0
I0
I0
I0
I0
I0
I0
I0
I0
I0
I0
I0
I0
I0
I0
I0
I0
I0
I0
I0
I0
I0
I0
I0
I0
I0
I0
I0
I0
I0
I0
I0
I0
I0
I0
I0
I0
I0
I0
I0
I0
I0
I0
I0
I0
I0
I0
I0
I0
I0
I0
I0
I0
I0
I0
I0
I0
I0
I0
I-1
I0
I0
I0
I0
I0
I0
I0
I0
I0
I0
I0
I0
I0
I0
I0
I0
I0
I0
I0
I0
I0
I0
I0
I0
I0
I0
I0
I0
I0
I0
I0
I0
I0
I0
I0
I0
I0
I0
I0
I0
I0
I0
I0
I0
I0
I0
I0
I0
I0
I0
I0
I0
I0
I0
I0
I0
I0
I0
I0
I0
I0
I0
I0
I0
I0
I0
I0
I0
I0
I0
I0
I0
I0
I0
I0
I0
I0
I0
I0
I0
I0
I0
I0
I0
I0
I0
I0
I0
I0
I0
I0
I0
I0
I0
I0
I100
I100
I100
I100
I100
I100
I100
I100
I100
I100
I100
I0
I0
I0
I0
I0
I0
I0
I0
I0
I0
I0
I0
I0
I0
I0
I0
I0
I0
I0
I0
I0
I0
I0
I0
I0
I0
I0
I0
I0
I0
I0
I0
I0
I0
I0
I0
I0
I0
I0
I0
I0
I0
I0
I0
I0
I0
I0
I0
I0
I0
I0
I0
I0
I0
I0
I0
I0
I0
I0
I0
I0
I0
I0
I0
I0
I0
I0
I0
I0
I0
I0
I0
I0
I0
I0
I0
I0
I0
I0
I0
I0
I0
I0
I0
I0
I0
I0
I0
I0
I0
I0
I0
I0
I0
I-1
I0
I0
I0
I0
I0
I0
I0
I0
I0
I0
I0
I0
I0
I0
I0
I0
I0
I0
I0
I0
I0
I0
I0
I0
I0
I0
I0
I0
I0
I0
I0
I0
I0
I0
I0
I0
I0
I0
I0
I0
I0
I0
I0
I0
I0
I0
I0
I0
I0
I0
I0
I0
I0
I0
I0
I0
I0
I0
I0
I0
I0
I0
I0
I0
I0
I0
I0
I0
I0
I0
I0
I0
I0
I0
I0
I0
I0
I0
I0
I0
I0
I0
I0
I0
I0
I0
I0
I0
I0
I0
I0
I0
I0
I0
I0
I100
I100
I100
I100
I100
I100
I100
I100
I100
I100
I100
I0
I0
I0
I0
I0
I0
I0
I0
I0
I0
I0
I0
I0
I0
I0
I0
I0
I0
I0
I0
I0
I0
I0
I0
I0
I0
I0
I0
I0
I0
I0
I0
I0
I0
I0
I0
I0
I0
I0
I0
I0
I0
I0
I0
I0
I0
I0
I0
I0
I0
I0
I0
I0
I0
I0
I0
I0
I0
I0
I0
I0
I0
I0
I0
I0
I0
I0
I0
I0
I0
I0
I0
I0
I0
I0
I0
I0
I0
I0
I0
I0
I0
I0
I0
I0
I0
I0
I0
I0
I0
I0
I0
I0
I0
I-1
I0
I0
I0
I0
I0
I0
I0
I0
I0
I0
I0
I0
I0
I0
I0
I0
I0
I0
I0
I0
I0
I0
I0
I0
I0
I0
I0
I0
I0
I0
I0
I0
I0
I0
I0
I0
I0
I0
I0
I0
I0
I0
I0
I0
I0
I0
I0
I0
I0
I0
I0
I0
I0
I0
I0
I0
I0
I0
I0
I0
I0
I0
I0
I0
I0
I0
I0
I0
I0
I0
I0
I0
I0
I0
I0
I0
I0
I0
I0
I0
I0
I0
I0
I0
I0
I0
I0
I0
I0
I0
I0
I0
I0
I0
I0
I100
I100
I100
I100
I100
I100
I100
I100
I100
I100
I100
I0
I0
I0
I0
I0
I0
I0
I0
I0
I0
I0
I0
I0
I0
I0
I0
I0
I0
I0
I0
I0
I0
I0
I0
I0
I0
I0
I0
I0
I0
I0
I0
I0
I0
I0
I0
I0
I0
I0
I0
I0
I0
I0
I0
I0
I0
I0
I0
I0
I0
I0
I0
I0
I0
I0
I0
I0
I0
I0
I0
I0
I0
I0
I0
I0
I0
I0
I0
I0
I0
I0
I0
I0
I0
I0
I0
I0
I0
I0
I0
I0
I0
I0
I0
I0
I0
I0
I0
I0
I0
I0
I0
I0
I0
I-1
I0
I0
I0
I0
I0
I0
I0
I0
I0
I0
I0
I0
I0
I0
I0
I0
I0
I0
I0
I0
I0
I0
I0
I0
I0
I0
I0
I0
I0
I0
I0
I0
I0
I0
I0
I0
I0
I0
I0
I0
I0
I0
I0
I0
I0
I0
I0
I0
I0
I0
I0
I0
I0
I0
I0
I0
I0
I0
I0
I0
I0
I0
I0
I0
I0
I0
I0
I0
I0
I0
I0
I0
I0
I0
I0
I0
I0
I0
I0
I0
I0
I0
I0
I0
I0
I0
I0
I0
I0
I0
I0
I0
I0
I0
I0
I100
I100
I100
I100
I100
I100
I100
I100
I100
I100
I100
I0
I0
I0
I0
I0
I0
I0
I0
I0
I0
I0
I0
I0
I0
I0
I0
I0
I0
I0
I0
I0
I0
I0
I0
I0
I0
I0
I0
I0
I0
I0
I0
I0
I0
I0
I0
I0
I0
I0
I0
I0
I0
I0
I0
I0
I0
I0
I0
I0
I0
I0
I0
I0
I0
I0
I0
I0
I0
I0
I0
I0
I0
I0
I0
I0
I0
I0
I0
I0
I0
I0
I0
I0
I0
I0
I0
I0
I0
I0
I0
I0
I0
I0
I0
I0
I0
I0
I0
I0
I0
I0
I0
I0
I0
I-1
I0
I0
I0
I0
I0
I0
I0
I0
I0
I0
I0
I0
I0
I0
I0
I0
I0
I0
I0
I0
I0
I0
I0
I0
I0
I0
I0
I0
I0
I0
I0
I0
I0
I0
I0
I0
I0
I0
I0
I0
I0
I0
I0
I0
I0
I0
I0
I0
I0
I0
I0
I0
I0
I0
I0
I0
I0
I0
I0
I0
I0
I0
I0
I0
I0
I0
I0
I0
I0
I0
I0
I0
I0
I0
I0
I0
I0
I0
I0
I0
I0
I0
I0
I0
I0
I0
I0
I0
I0
I0
I0
I0
I0
I0
I0
I0
I0
I0
I0
I0
I0
I0
I0
I0
I0
I0
I0
I0
I0
I0
I0
I0
I0
I0
I0
I0
I0
I0
I0
I0
I0
I0
I0
I0
I0
I0
I0
I0
I0
I0
I0
I0
I0
I0
I0
I0
I0
I0
I0
I0
I0
I0
I0
I0
I0
I0
I0
I0
I0
I0
I0
I0
I0
I0
I0
I0
I0
I0
I0
I0
I0
I0
I0
I0
I0
I0
I0
I0
I0
I0
I0
I0
I0
I0
I0
I0
I0
I0
I0
I0
I0
I0
I0
I0
I0
I0
I0
I0
I0
I0
I0
I0
I0
I0
I0
I0
I0
I0
I0
I0
I-1
I0
I0
I0
I0
I0
I0
I0
I0
I0
I0
I0
I0
I0
I0
I0
I0
I0
I0
I0
I0
I0
I0
I0
I0
I0
I0
I0
I0
I0
I0
I0
I0
I0
I0
I0
I0
I0
I0
I0
I0
I0
I0
I0
I0
I0
I0
I0
I0
I0
I0
I0
I0
I0
I0
I0
I0
I0
I0
I0
I0
I0
I0
I0
I0
I0
I0
I0
I0
I0
I0
I0
I0
I0
I0
I0
I0
I0
I0
I0
I0
I0
I0
I0
I0
I0
I0
I0
I0
I0
I0
I0
I0
I0
I0
I0
I0
I0
I0
I0
I0
I0
I0
I0
I0
I0
I0
I0
I0
I0
I0
I0
I0
I0
I0
I0
I0
I0
I0
I0
I0
I0
I0
I0
I0
I0
I0
I0
I0
I0
I0
I0
I0
I0
I0
I0
I0
I0
I0
I0
I0
I0
I0
I0
I0
I0
I0
I0
I0
I0
I0
I0
I0
I0
I0
I0
I0
I0
I0
I0
I0
I0
I0
I0
I0
I0
I0
I0
I0
I0
I0
I0
I0
I0
I0
I0
I0
I0
I0
I0
I0
I0
I0
I0
I0
I0
I0
I0
I0
I0
I0
I0
I0
I0
I0
I0
I0
I0
I0
I0
I0
I-1
I0
I0
I0
I0
I0
I0
I0
I0
I0
I0
I0
I0
I0
I0
I0
I0
I0
I0
I0
I0
I0
I0
I0
I0
I0
I0
I0
I0
I0
I0
I0
I0
I0
I0
I0
I0
I0
I0
I0
I0
I0
I0
I0
I0
I0
I0
I0
I0
I0
I0
I0
I0
I0
I0
I0
I0
I0
I0
I0
I0
I0
I0
I0
I0
I0
I0
I0
I0
I0
I0
I0
I0
I0
I0
I0
I0
I0
I0
I0
I0
I0
I0
I0
I0
I0
I0
I0
I0
I0
I0
I0
I0
I0
I0
I0
I0
I0
I0
I0
I0
I0
I0
I0
I0
I0
I0
I0
I0
I0
I0
I0
I0
I0
I0
I0
I0
I0
I0
I0
I0
I0
I0
I0
I0
I0
I0
I0
I0
I0
I0
I0
I0
I0
I0
I0
I0
I0
I0
I0
I0
I0
I0
I0
I0
I0
I0
I0
I0
I0
I0
I0
I0
I0
I0
I0
I0
I0
I0
I0
I0
I0
I0
I0
I0
I0
I0
I0
I0
I0
I0
I0
I0
I0
I0
I0
I0
I0
I0
I0
I0
I0
I0
I0
I0
I0
I0
I0
I0
I0
I0
I0
I0
I0
I0
I0
I0
I0
I0
I0
I0
I-1
I0
I0
I0
I0
I0
I0
I0
I0
I0
I0
I0
I0
I0
I0
I0
I0
I0
I0
I0
I0
I0
I0
I0
I0
I0
I0
I0
I0
I0
I0
I0
I0
I0
I0
I0
I0
I0
I0
I0
I0
I0
I0
I0
I0
I0
I0
I0
I0
I0
I0
I0
I0
I0
I0
I0
I0
I0
I0
I0
I0
I0
I0
I0
I0
I0
I0
I0
I0
I0
I0
I0
I0
I0
I0
I0
I0
I0
I0
I0
I0
I0
I0
I0
I0
I0
I0
I0
I0
I0
I0
I0
I0
I0
I0
I0
I0
I0
I0
I0
I0
I0
I0
I0
I0
I0
I0
I0
I0
I0
I0
I0
I0
I0
I0
I0
I0
I0
I0
I0
I0
I0
I0
I0
I0
I0
I0
I0
I0
I0
I0
I0
I0
I0
I0
I0
I0
I0
I0
I0
I0
I0
I0
I0
I0
I0
I0
I0
I0
I0
I0
I0
I0
I0
I0
I0
I0
I0
I0
I0
I0
I0
I0
I0
I0
I0
I0
I0
I0
I0
I0
I0
I0
I0
I0
I0
I0
I0
I0
I0
I0
I0
I0
I0
I0
I0
I0
I0
I0
I0
I0
I0
I0
I0
I0
I0
I0
I0
I0
I0
I0
I-1
I0
I0
I0
I0
I0
I0
I0
I0
I0
I0
I0
I0
I0
I0
I0
I0
I0
I0
I0
I0
I0
I0
I0
I0
I0
I0
I0
I0
I0
I0
I0
I0
I0
I0
I0
I0
I0
I0
I0
I0
I0
I0
I0
I0
I0
I0
I0
I0
I0
I0
I0
I0
I0
I0
I0
I0
I0
I0
I0
I0
I0
I0
I0
I0
I0
I0
I0
I0
I0
I0
I0
I0
I0
I0
I0
I0
I0
I0
I0
I0
I0
I0
I0
I0
I0
I0
I0
I0
I0
I0
I0
I0
I0
I0
I0
I0
I0
I0
I0
I0
I0
I0
I0
I0
I0
I0
I0
I0
I0
I0
I0
I0
I0
I0
I0
I0
I0
I0
I0
I0
I0
I0
I0
I0
I0
I0
I0
I0
I0
I0
I0
I0
I0
I0
I0
I0
I0
I0
I0
I0
I0
I0
I0
I0
I0
I0
I0
I0
I0
I0
I0
I0
I0
I0
I0
I0
I0
I0
I0
I0
I0
I0
I0
I0
I0
I0
I0
I0
I0
I0
I0
I0
I0
I0
I0
I0
I0
I0
I0
I0
I0
I0
I0
I0
I0
I0
I0
I100
I100
I100
I100
I100
I100
I100
I100
I100
I100
I100
I0
I0
I-1
I0
I0
I0
I0
I0
I0
I0
I0
I0
I0
I0
I0
I0
I0
I0
I0
I0
I0
I0
I0
I0
I0
I0
I0
I0
I0
I0
I0
I0
I0
I0
I0
I0
I0
I0
I0
I0
I0
I0
I0
I0
I0
I0
I0
I0
I0
I0
I0
I0
I0
I0
I0
I0
I0
I0
I0
I0
I0
I0
I0
I0
I0
I0
I0
I0
I0
I0
I0
I0
I0
I0
I0
I0
I0
I0
I0
I0
I0
I0
I0
I0
I0
I0
I0
I0
I0
I0
I0
I0
I0
I0
I0
I0
I0
I0
I0
I0
I0
I0
I0
I0
I0
I0
I0
I0
I0
I0
I0
I0
I0
I0
I0
I0
I0
I0
I0
I0
I0
I0
I0
I0
I0
I0
I0
I0
I0
I0
I0
I0
I0
I0
I0
I0
I0
I0
I0
I0
I0
I0
I0
I0
I0
I0
I0
I0
I0
I0
I0
I0
I0
I0
I0
I0
I0
I0
I0
I0
I0
I0
I0
I0
I0
I0
I0
I0
I0
I0
I0
I0
I0
I0
I0
I0
I0
I0
I0
I0
I0
I0
I0
I0
I0
I0
I0
I0
I0
I0
I100
I100
I100
I100
I100
I100
I100
I100
I100
I100
I100
I0
I0
I-1
I0
I0
I0
I0
I0
I0
I0
I0
I0
I0
I0
I0
I0
I0
I0
I0
I0
I0
I0
I0
I0
I0
I0
I0
I0
I0
I0
I0
I0
I0
I0
I0
I0
I0
I0
I0
I0
I0
I0
I0
I0
I0
I0
I0
I0
I0
I0
I0
I0
I0
I0
I0
I0
I0
I0
I0
I0
I0
I0
I0
I0
I0
I0
I0
I0
I0
I0
I0
I0
I0
I0
I0
I0
I0
I0
I0
I0
I0
I0
I0
I0
I0
I0
I0
I0
I0
I0
I0
I0
I0
I0
I0
I0
I0
I0
I0
I0
I0
I0
I0
I0
I0
I0
I0
I0
I0
I0
I0
I0
I0
I0
I0
I0
I0
I0
I0
I0
I0
I0
I0
I0
I0
I0
I0
I0
I0
I0
I0
I0
I0
I0
I0
I0
I0
I0
I0
I0
I0
I0
I0
I0
I0
I0
I0
I0
I0
I0
I0
I0
I0
I0
I0
I0
I0
I0
I0
I0
I0
I0
I0
I0
I0
I0
I0
I0
I0
I0
I0
I0
I0
I0
I0
I0
I0
I0
I0
I0
I0
I0
I0
I0
I0
I0
I0
I0
I0
I0
I100
I100
I100
I100
I100
I100
I100
I100
I100
I100
I100
I0
I0
I-1
I0
I0
I0
I0
I0
I0
I0
I0
I0
I0
I0
I0
I0
I0
I0
I0
I0
I0
I0
I0
I0
I0
I0
I0
I0
I0
I0
I0
I0
I0
I0
I0
I0
I0
I0
I0
I0
I0
I0
I0
I0
I0
I0
I0
I0
I0
I0
I0
I0
I0
I0
I0
I0
I0
I0
I0
I0
I0
I0
I0
I0
I0
I0
I0
I0
I0
I0
I0
I0
I0
I0
I0
I0
I0
I0
I0
I0
I0
I0
I0
I0
I0
I0
I0
I0
I0
I0
I0
I0
I0
I0
I0
I0
I0
I0
I0
I0
I0
I0
I0
I0
I0
I0
I0
I0
I0
I0
I0
I0
I0
I0
I0
I0
I0
I0
I0
I0
I0
I0
I0
I0
I0
I0
I0
I0
I0
I0
I0
I0
I0
I0
I0
I0
I0
I0
I0
I0
I0
I0
I0
I0
I0
I0
I0
I0
I0
I0
I0
I0
I0
I0
I0
I0
I0
I0
I0
I0
I0
I0
I0
I0
I0
I0
I0
I0
I0
I0
I0
I0
I0
I0
I0
I0
I0
I0
I0
I0
I0
I0
I0
I0
I0
I0
I0
I0
I0
I0
I100
I100
I100
I100
I100
I100
I100
I100
I100
I100
I100
I0
I0
I-1
I0
I0
I0
I0
I0
I0
I0
I0
I0
I0
I0
I0
I0
I0
I0
I0
I0
I0
I0
I0
I0
I0
I0
I0
I0
I0
I0
I0
I0
I0
I0
I0
I0
I0
I0
I0
I0
I0
I0
I0
I0
I0
I0
I0
I0
I0
I0
I0
I0
I0
I0
I0
I0
I0
I0
I0
I0
I0
I0
I0
I0
I0
I0
I0
I0
I0
I0
I0
I0
I0
I0
I0
I0
I0
I0
I0
I0
I0
I0
I0
I0
I0
I0
I0
I0
I0
I0
I0
I0
I0
I0
I0
I0
I0
I0
I0
I0
I0
I0
I0
I0
I0
I0
I0
I0
I0
I0
I0
I0
I0
I0
I0
I0
I0
I0
I0
I0
I0
I0
I0
I0
I0
I0
I0
I0
I0
I0
I0
I0
I0
I0
I0
I0
I0
I0
I0
I0
I0
I0
I0
I0
I0
I0
I0
I0
I0
I0
I0
I0
I0
I0
I0
I0
I0
I0
I0
I0
I0
I0
I0
I0
I0
I0
I0
I0
I0
I0
I0
I0
I0
I0
I0
I0
I0
I0
I0
I0
I0
I0
I0
I0
I0
I0
I0
I0
I0
I0
I100
I100
I100
I100
I100
I100
I100
I100
I100
I100
I100
I0
I0
I-1
I0
I0
I0
I0
I0
I0
I0
I0
I0
I0
I0
I0
I0
I0
I0
I0
I0
I0
I0
I0
I0
I0
I0
I0
I0
I0
I0
I0
I0
I0
I0
I0
I0
I0
I0
I0
I0
I0
I0
I0
I0
I0
I0
I0
I0
I0
I0
I0
I0
I0
I0
I0
I0
I0
I0
I0
I0
I0
I0
I0
I0
I0
I0
I0
I0
I0
I0
I0
I0
I0
I0
I0
I0
I0
I0
I0
I0
I0
I0
I0
I0
I0
I0
I0
I0
I0
I0
I0
I0
I0
I0
I0
I0
I0
I0
I0
I0
I0
I0
I0
I0
I0
I0
I0
I0
I0
I0
I0
I0
I0
I0
I0
I0
I0
I0
I0
I0
I0
I0
I0
I0
I0
I0
I0
I0
I0
I0
I0
I0
I0
I0
I0
I0
I0
I0
I0
I0
I0
I0
I0
I0
I0
I0
I0
I0
I0
I0
I0
I0
I0
I0
I0
I0
I0
I0
I0
I0
I0
I0
I0
I0
I0
I0
I0
I0
I0
I0
I0
I0
I0
I0
I0
I0
I0
I0
I0
I0
I0
I0
I0
I0
I0
I0
I0
I0
I0
I0
I100
I100
I100
I100
I100
I100
I100
I100
I100
I100
I100
I0
I0
I-1
I0
I0
I0
I0
I0
I0
I0
I0
I0
I0
I0
I0
I0
I0
I0
I0
I0
I0
I0
I0
I0
I0
I0
I0
I0
I0
I0
I0
I0
I0
I0
I0
I0
I0
I0
I0
I0
I0
I0
I0
I0
I0
I0
I0
I0
I0
I0
I0
I0
I0
I0
I0
I0
I0
I0
I0
I0
I0
I0
I0
I0
I0
I0
I0
I0
I0
I0
I0
I0
I0
I0
I0
I0
I0
I0
I0
I0
I0
I0
I0
I0
I0
I0
I0
I0
I0
I0
I0
I0
I0
I0
I0
I0
I0
I0
I0
I0
I0
I0
I0
I0
I0
I0
I0
I0
I0
I0
I0
I0
I0
I0
I0
I0
I0
I0
I0
I0
I0
I0
I0
I0
I0
I0
I0
I0
I0
I0
I0
I0
I0
I0
I0
I0
I0
I0
I0
I0
I0
I0
I0
I0
I0
I0
I0
I0
I0
I0
I0
I0
I0
I0
I0
I0
I0
I0
I0
I0
I0
I0
I0
I0
I0
I0
I0
I0
I0
I0
I0
I0
I0
I0
I0
I0
I0
I0
I0
I0
I0
I0
I0
I0
I0
I0
I0
I0
I0
I0
I100
I100
I100
I100
I100
I100
I100
I100
I100
I100
I100
I0
I0
I-1
I0
I0
I0
I0
I0
I0
I0
I0
I0
I0
I0
I0
I0
I0
I0
I0
I0
I0
I0
I0
I0
I0
I0
I0
I0
I0
I0
I0
I0
I0
I0
I0
I0
I0
I0
I0
I0
I0
I0
I0
I0
I0
I0
I0
I0
I0
I0
I0
I0
I0
I0
I0
I0
I0
I0
I0
I0
I0
I0
I0
I0
I0
I0
I0
I0
I0
I0
I0
I0
I0
I0
I0
I0
I0
I0
I0
I0
I0
I0
I0
I0
I0
I0
I0
I0
I0
I0
I0
I0
I0
I0
I0
I0
I0
I0
I0
I0
I0
I0
I0
I0
I0
I0
I0
I0
I0
I0
I0
I0
I0
I0
I0
I0
I0
I0
I0
I0
I0
I0
I0
I0
I0
I0
I0
I0
I0
I0
I0
I0
I0
I0
I0
I0
I0
I0
I0
I0
I0
I0
I0
I0
I0
I0
I0
I0
I0
I0
I0
I0
I0
I0
I0
I0
I0
I0
I0
I0
I0
I0
I0
I0
I0
I0
I0
I0
I0
I0
I0
I0
I0
I0
I0
I0
I0
I0
I0
I0
I0
I0
I0
I0
I0
I0
I0
I0
I0
I0
I100
I100
I100
I100
I100
I100
I100
I100
I100
I100
I100
I0
I0
I-1
I0
I0
I0
I0
I0
I0
I0
I0
I0
I0
I0
I0
I0
I0
I0
I0
I0
I0
I0
I0
I0
I0
I0
I0
I0
I0
I0
I0
I0
I0
I0
I0
I0
I0
I0
I0
I0
I0
I0
I0
I0
I0
I0
I0
I0
I0
I0
I0
I0
I0
I0
I0
I0
I0
I0
I0
I0
I0
I0
I0
I0
I0
I0
I0
I0
I0
I0
I0
I0
I0
I0
I0
I0
I0
I0
I0
I0
I0
I0
I0
I0
I0
I0
I0
I0
I0
I0
I0
I0
I0
I0
I0
I0
I0
I0
I0
I0
I0
I0
I0
I0
I0
I0
I0
I0
I0
I0
I0
I0
I0
I0
I0
I0
I0
I0
I0
I0
I0
I0
I0
I0
I0
I0
I0
I0
I0
I0
I0
I0
I0
I0
I0
I0
I0
I0
I0
I0
I0
I0
I0
I0
I0
I0
I0
I0
I0
I0
I0
I0
I0
I0
I0
I0
I0
I0
I0
I0
I0
I0
I0
I0
I0
I0
I0
I0
I0
I0
I0
I0
I0
I0
I0
I0
I0
I0
I0
I0
I0
I0
I0
I0
I0
I0
I0
I0
I0
I0
I100
I100
I100
I100
I100
I100
I100
I100
I100
I100
I100
I0
I0
I-1
I0
I0
I0
I0
I0
I0
I0
I0
I0
I0
I0
I0
I0
I0
I0
I0
I0
I0
I0
I0
I0
I0
I0
I0
I0
I0
I0
I0
I0
I0
I0
I0
I0
I0
I0
I0
I0
I0
I0
I0
I0
I0
I0
I0
I0
I0
I0
I0
I0
I0
I0
I0
I0
I0
I0
I0
I0
I0
I0
I0
I0
I0
I0
I0
I0
I0
I0
I0
I0
I0
I0
I0
I0
I0
I0
I0
I0
I0
I0
I0
I0
I0
I0
I0
I0
I0
I0
I0
I0
I0
I0
I0
I0
I0
I0
I0
I0
I0
I0
I0
I0
I0
I0
I0
I0
I0
I0
I0
I0
I0
I0
I0
I0
I0
I0
I0
I0
I0
I0
I0
I0
I0
I0
I0
I0
I0
I0
I0
I0
I0
I0
I0
I0
I0
I0
I0
I0
I0
I0
I0
I0
I0
I0
I0
I0
I0
I0
I0
I0
I0
I0
I0
I0
I0
I0
I0
I0
I0
I0
I0
I0
I0
I0
I0
I0
I0
I0
I0
I0
I0
I0
I0
I0
I0
I0
I0
I0
I0
I0
I0
I0
I0
I0
I0
I0
I0
I0
I100
I100
I100
I100
I100
I100
I100
I100
I100
I100
I100
I0
I0
I-1
I0
I0
I0
I0
I0
I0
I0
I0
I0
I0
I0
I0
I0
I0
I0
I0
I0
I0
I0
I0
I0
I0
I0
I0
I0
I0
I0
I0
I0
I0
I0
I0
I0
I0
I0
I0
I0
I0
I0
I0
I0
I0
I0
I0
I0
I0
I0
I0
I0
I0
I0
I0
I0
I0
I0
I0
I0
I0
I0
I0
I0
I0
I0
I0
I0
I0
I0
I0
I0
I0
I0
I0
I0
I0
I0
I0
I0
I0
I0
I0
I0
I0
I0
I0
I0
I0
I0
I0
I0
I0
I0
I0
I0
I0
I0
I0
I0
I0
I0
I0
I0
I0
I0
I0
I0
I0
I0
I0
I0
I0
I0
I0
I0
I0
I0
I0
I0
I0
I0
I0
I0
I0
I0
I0
I0
I0
I0
I0
I0
I0
I0
I0
I0
I0
I0
I0
I0
I0
I0
I0
I0
I0
I0
I0
I0
I0
I0
I0
I0
I0
I0
I0
I0
I0
I0
I0
I0
I0
I0
I0
I0
I0
I0
I0
I0
I0
I0
I0
I0
I0
I0
I0
I0
I0
I0
I0
I0
I0
I0
I0
I0
I0
I0
I0
I0
I0
I0
I0
I100
I100
I100
I100
I100
I100
I100
I100
I100
I100
I0
I0
I-1
I0
I0
I0
I0
I0
I0
I0
I0
I0
I0
I0
I0
I0
I0
I0
I0
I0
I0
I0
I0
I0
I0
I0
I0
I0
I0
I0
I0
I0
I0
I0
I0
I0
I0
I0
I0
I0
I0
I0
I0
I0
I0
I0
I0
I0
I0
I0
I0
I0
I0
I0
I0
I0
I0
I0
I0
I0
I0
I0
I0
I0
I0
I0
I0
I0
I0
I0
I0
I0
I0
I0
I0
I0
I0
I0
I0
I0
I0
I0
I0
I0
I0
I0
I0
I0
I0
I0
I0
I0
I0
I0
I0
I0
I0
I0
I0
I0
I0
I0
I0
I0
I0
I0
I0
I0
I0
I0
I0
I0
I0
I0
I0
I0
I0
I0
I0
I0
I0
I0
I0
I0
I0
I0
I0
I0
I0
I0
I0
I0
I0
I0
I0
I0
I0
I0
I0
I0
I0
I0
I0
I0
I0
I0
I0
I0
I0
I0
I0
I0
I0
I0
I0
I0
I0
I0
I0
I0
I0
I0
I0
I0
I0
I0
I0
I0
I0
I0
I0
I0
I0
I0
I0
I0
I0
I0
I0
I0
I0
I0
I0
I0
I0
I0
I0
I0
I0
I0
I0
I0
I0
I0
I0
I0
I0
I0
I0
I0
I0
I0
I0
I-1
I0
I0
I0
I0
I0
I0
I0
I0
I0
I0
I0
I0
I0
I0
I0
I0
I0
I0
I0
I0
I0
I0
I0
I0
I0
I0
I0
I0
I0
I0
I0
I0
I0
I0
I0
I0
I0
I0
I0
I0
I0
I0
I0
I0
I0
I0
I0
I0
I0
I0
I0
I0
I0
I0
I0
I0
I0
I0
I0
I0
I0
I0
I0
I0
I0
I0
I0
I0
I0
I0
I0
I0
I0
I0
I0
I0
I0
I0
I0
I0
I0
I0
I0
I0
I0
I0
I0
I0
I0
I0
I0
I0
I0
I0
I0
I0
I0
I0
I0
I0
I0
I0
I0
I0
I0
I0
I0
I0
I0
I0
I0
I0
I0
I0
I0
I0
I0
I0
I0
I0
I0
I0
I0
I0
I0
I0
I0
I0
I0
I0
I0
I0
I0
I0
I0
I0
I0
I0
I0
I0
I0
I0
I0
I0
I0
I0
I0
I0
I0
I0
I0
I0
I0
I0
I0
I0
I0
I0
I0
I0
I0
I0
I0
I0
I0
I0
I0
I0
I0
I0
I0
I0
I0
I0
I0
I0
I0
I0
I0
I0
I0
I0
I0
I0
I0
I0
I0
I0
I0
I0
I0
I0
I0
I0
I0
I0
I0
I0
I0
I0
I-1
I0
I0
I0
I0
I0
I0
I0
I0
I0
I0
I0
I0
I0
I0
I0
I0
I0
I0
I0
I0
I0
I0
I0
I0
I0
I0
I0
I0
I0
I0
I0
I0
I0
I0
I0
I0
I0
I0
I0
I0
I0
I0
I0
I0
I0
I0
I0
I0
I0
I0
I0
I0
I0
I0
I0
I0
I0
I0
I0
I0
I0
I0
I0
I0
I0
I0
I0
I0
I0
I0
I0
I0
I0
I0
I0
I0
I0
I0
I0
I0
I0
I0
I0
I0
I0
I0
I0
I0
I0
I0
I0
I0
I0
I0
I0
I0
I0
I0
I0
I0
I0
I0
I0
I0
I0
I0
I0
I0
I0
I0
I0
I0
I0
I0
I0
I0
I0
I0
I0
I0
I0
I0
I0
I0
I0
I0
I0
I0
I0
I0
I0
I0
I0
I0
I0
I0
I0
I0
I0
I0
I0
I0
I0
I0
I0
I0
I0
I0
I0
I0
I0
I0
I0
I0
I0
I0
I0
I0
I0
I0
I0
I0
I0
I0
I0
I0
I0
I0
I0
I0
I0
I0
I0
I0
I0
I0
I0
I0
I0
I0
I0
I0
I0
I0
I0
I0
I0
I0
I0
I0
I0
I0
I0
I0
I0
I0
I0
I0
I0
I0
I-1
I0
I0
I0
I0
I0
I0
I0
I0
I0
I0
I0
I0
I0
I0
I0
I0
I0
I0
I0
I0
I0
I0
I0
I0
I0
I0
I0
I0
I0
I0
I0
I0
I0
I0
I0
I0
I0
I0
I0
I0
I0
I0
I0
I0
I0
I0
I0
I0
I0
I0
I0
I0
I0
I0
I0
I0
I0
I0
I0
I0
I0
I0
I0
I0
I0
I0
I0
I0
I0
I0
I0
I0
I0
I0
I0
I0
I0
I0
I0
I0
I0
I0
I0
I0
I0
I0
I0
I0
I0
I0
I0
I0
I0
I0
I0
I0
I0
I0
I0
I0
I0
I0
I0
I0
I0
I0
I0
I0
I0
I0
I0
I0
I0
I0
I0
I0
I0
I0
I0
I0
I0
I0
I0
I0
I0
I0
I0
I0
I0
I0
I0
I0
I0
I0
I0
I0
I0
I0
I0
I0
I0
I0
I0
I0
I0
I0
I0
I0
I0
I0
I0
I0
I0
I0
I0
I0
I0
I0
I0
I0
I0
I0
I0
I0
I0
I0
I0
I0
I0
I0
I0
I0
I0
I0
I0
I0
I0
I0
I0
I0
I0
I0
I0
I0
I0
I0
I0
I0
I0
I0
I0
I0
I0
I0
I0
I0
I0
I0
I0
I0
I-1
I0
I0
I0
I0
I0
I0
I0
I0
I0
I0
I0
I0
I0
I0
I0
I0
I0
I0
I0
I0
I0
I0
I0
I0
I0
I0
I0
I0
I0
I0
I0
I0
I0
I0
I0
I0
I0
I0
I0
I0
I0
I0
I0
I0
I0
I0
I0
I0
I0
I0
I0
I0
I0
I0
I0
I0
I0
I0
I0
I0
I0
I0
I0
I0
I0
I0
I0
I0
I0
I0
I0
I0
I0
I0
I0
I0
I0
I0
I0
I0
I0
I0
I0
I0
I0
I0
I0
I0
I0
I0
I0
I0
I0
I0
I0
I0
I0
I0
I0
I0
I0
I0
I0
I0
I0
I0
I0
I0
I0
I0
I0
I0
I0
I0
I0
I0
I0
I0
I0
I0
I0
I0
I0
I0
I0
I0
I0
I0
I0
I0
I0
I0
I0
I0
I0
I0
I0
I0
I0
I0
I0
I0
I0
I0
I0
I0
I0
I0
I0
I0
I0
I0
I0
I0
I0
I0
I0
I0
I0
I0
I0
I0
I0
I0
I0
I0
I0
I0
I0
I0
I0
I0
I0
I0
I0
I0
I0
I0
I0
I0
I0
I100
I100
I0
I0
I0
I0
I0
I0
I0
I0
I0
I0
I0
I0
I0
I0
I0
I0
I0
I-1
I0
I0
I0
I0
I0
I0
I0
I0
I0
I0
I0
I0
I0
I0
I0
I0
I0
I0
I100
I100
I100
I100
I0
I0
I0
I0
I0
I0
I0
I0
I0
I0
I0
I0
I0
I0
I0
I0
I0
I0
I0
I0
I0
I0
I0
I0
I0
I0
I0
I0
I0
I0
I0
I0
I0
I0
I0
I0
I0
I0
I0
I0
I0
I0
I0
I0
I0
I0
I0
I0
I0
I0
I0
I0
I0
I0
I0
I0
I0
I0
I0
I0
I0
I0
I0
I0
I0
I0
I0
I0
I0
I0
I0
I0
I0
I0
I0
I0
I0
I0
I0
I0
I0
I0
I0
I0
I0
I0
I0
I0
I0
I0
I0
I0
I0
I0
I0
I0
I0
I0
I0
I0
I0
I0
I0
I0
I0
I0
I0
I0
I0
I0
I0
I0
I0
I0
I0
I0
I0
I0
I0
I0
I0
I0
I0
I0
I0
I0
I0
I0
I0
I0
I0
I0
I0
I0
I0
I0
I0
I0
I0
I0
I0
I0
I0
I0
I0
I0
I0
I0
I0
I0
I0
I0
I0
I0
I0
I0
I0
I100
I100
I100
I100
I100
I100
I0
I0
I0
I0
I0
I0
I0
I0
I0
I0
I0
I0
I0
I0
I0
I-1
I0
I0
I0
I0
I0
I0
I0
I0
I0
I0
I0
I0
I0
I0
I0
I0
I100
I100
I100
I100
I100
I100
I100
I0
I0
I0
I0
I0
I0
I0
I0
I0
I0
I0
I0
I0
I0
I0
I0
I0
I0
I0
I0
I0
I0
I0
I0
I0
I0
I0
I0
I0
I0
I0
I0
I0
I0
I0
I0
I0
I0
I0
I0
I0
I0
I0
I0
I0
I0
I0
I0
I0
I0
I0
I0
I0
I0
I0
I0
I0
I0
I0
I0
I0
I0
I0
I0
I0
I0
I0
I0
I0
I0
I0
I0
I0
I0
I0
I0
I0
I0
I0
I0
I0
I0
I0
I0
I0
I0
I0
I0
I0
I0
I0
I0
I0
I0
I0
I0
I0
I0
I0
I0
I0
I0
I0
I0
I0
I0
I0
I0
I0
I0
I0
I0
I0
I0
I0
I0
I0
I0
I0
I0
I0
I0
I0
I0
I0
I0
I0
I0
I0
I0
I0
I0
I0
I0
I0
I0
I0
I0
I0
I0
I0
I0
I0
I0
I0
I0
I0
I0
I0
I0
I0
I0
I0
I0
I0
I100
I100
I100
I100
I100
I100
I100
I100
I0
I0
I0
I0
I0
I0
I0
I0
I0
I0
I0
I0
I0
I0
I-1
I0
I0
I0
I0
I0
I0
I0
I0
I0
I0
I0
I0
I0
I0
I0
I100
I100
I100
I100
I100
I100
I100
I100
I100
I0
I0
I0
I0
I0
I0
I0
I0
I0
I0
I0
I0
I0
I0
I0
I0
I0
I0
I0
I0
I0
I0
I0
I0
I0
I0
I0
I0
I0
I0
I0
I0
I0
I0
I0
I0
I0
I0
I0
I0
I0
I0
I0
I0
I0
I0
I0
I0
I0
I0
I0
I0
I0
I0
I0
I0
I0
I0
I0
I0
I0
I0
I0
I0
I0
I0
I0
I0
I0
I0
I0
I0
I0
I0
I0
I0
I0
I0
I0
I0
I0
I0
I0
I0
I0
I0
I0
I0
I0
I0
I0
I0
I0
I0
I0
I0
I0
I0
I0
I0
I0
I0
I0
I0
I0
I0
I0
I0
I0
I0
I0
I0
I0
I0
I0
I0
I0
I0
I0
I0
I0
I0
I0
I0
I0
I0
I0
I0
I0
I0
I0
I0
I0
I0
I0
I0
I0
I0
I0
I0
I0
I0
I0
I0
I0
I0
I0
I0
I0
I0
I0
I0
I0
I100
I100
I100
I100
I100
I100
I100
I100
I100
I100
I0
I0
I0
I0
I0
I0
I0
I0
I0
I0
I0
I0
I0
I-1
I0
I0
I0
I0
I0
I0
I0
I0
I0
I0
I0
I0
I0
I0
I0
I100
I100
I100
I100
I100
I100
I100
I100
I100
I100
I0
I0
I0
I0
I0
I0
I0
I0
I0
I0
I0
I0
I0
I0
I0
I0
I0
I0
I0
I0
I0
I0
I0
I0
I0
I0
I0
I0
I0
I0
I0
I0
I0
I0
I0
I0
I0
I0
I0
I0
I0
I0
I0
I0
I0
I0
I0
I0
I0
I0
I0
I0
I0
I0
I0
I0
I0
I0
I0
I0
I0
I0
I0
I0
I0
I0
I0
I0
I0
I0
I0
I0
I0
I0
I0
I0
I0
I0
I0
I0
I0
I0
I0
I0
I0
I0
I0
I0
I0
I0
I0
I0
I0
I0
I0
I0
I0
I0
I0
I0
I0
I0
I0
I0
I0
I0
I0
I0
I0
I0
I0
I0
I0
I0
I0
I0
I0
I0
I0
I0
I0
I0
I0
I0
I0
I0
I0
I0
I0
I0
I0
I0
I0
I0
I0
I0
I0
I0
I0
I0
I0
I0
I0
I0
I0
I0
I0
I0
I0
I0
I0
I0
I100
I100
I100
I100
I100
I100
I100
I100
I100
I100
I0
I0
I0
I0
I0
I0
I0
I0
I0
I0
I0
I0
I0
I-1
I0
I0
I0
I0
I0
I0
I0
I0
I0
I0
I0
I0
I0
I0
I100
I100
I100
I100
I100
I100
I100
I100
I100
I100
I100
I0
I0
I0
I0
I0
I0
I0
I0
I0
I0
I0
I0
I0
I0
I0
I0
I0
I0
I0
I0
I0
I0
I0
I0
I0
I0
I0
I0
I0
I0
I0
I0
I0
I0
I0
I0
I0
I0
I0
I0
I0
I0
I0
I0
I0
I0
I0
I0
I0
I0
I0
I0
I0
I0
I0
I0
I0
I0
I0
I0
I0
I0
I0
I0
I0
I0
I0
I0
I0
I0
I0
I0
I0
I0
I0
I0
I0
I0
I0
I0
I0
I0
I0
I0
I0
I0
I0
I0
I0
I0
I0
I0
I0
I0
I0
I0
I0
I0
I0
I0
I0
I0
I0
I0
I0
I0
I0
I0
I0
I0
I0
I0
I0
I0
I0
I0
I0
I0
I0
I0
I0
I0
I0
I0
I0
I0
I0
I0
I0
I0
I0
I0
I0
I0
I0
I0
I0
I0
I0
I0
I0
I0
I0
I0
I0
I0
I0
I0
I0
I0
I0
I100
I100
I100
I100
I100
I100
I100
I100
I100
I100
I100
I0
I0
I0
I0
I0
I0
I0
I0
I0
I0
I0
I0
I0
I-1
I0
I0
I0
I0
I0
I0
I0
I0
I0
I0
I0
I0
I0
I0
I100
I100
I100
I100
I100
I100
I100
I100
I100
I100
I100
I0
I0
I0
I0
I0
I0
I0
I0
I0
I0
I0
I0
I0
I0
I0
I0
I0
I0
I0
I0
I0
I0
I0
I0
I0
I0
I0
I0
I0
I0
I0
I0
I0
I0
I0
I0
I0
I0
I0
I0
I0
I0
I0
I0
I0
I0
I0
I0
I0
I0
I0
I0
I0
I0
I0
I0
I0
I0
I0
I0
I0
I0
I0
I0
I0
I0
I0
I0
I0
I0
I0
I0
I0
I0
I0
I0
I0
I0
I0
I0
I0
I0
I0
I0
I0
I0
I0
I0
I0
I0
I0
I0
I0
I0
I0
I0
I0
I0
I0
I0
I0
I0
I0
I0
I0
I0
I0
I0
I0
I0
I0
I0
I0
I0
I0
I0
I0
I0
I0
I0
I0
I0
I0
I0
I0
I0
I0
I0
I0
I0
I0
I0
I0
I0
I0
I0
I0
I0
I0
I0
I0
I0
I0
I0
I0
I0
I0
I0
I0
I0
I0
I100
I100
I100
I100
I100
I100
I100
I100
I100
I100
I100
I0
I0
I0
I0
I0
I0
I0
I0
I0
I0
I0
I0
I0
I-1
I0
I0
I0
I0
I0
I0
I0
I0
I0
I0
I0
I0
I0
I0
I100
I100
I100
I100
I100
I100
I100
I100
I100
I100
I100
I0
I0
I0
I0
I0
I0
I0
I0
I0
I0
I0
I0
I0
I0
I0
I0
I0
I0
I0
I0
I0
I0
I0
I0
I0
I0
I0
I0
I0
I0
I0
I0
I0
I0
I0
I0
I0
I0
I0
I0
I0
I0
I0
I0
I0
I0
I0
I0
I0
I0
I0
I0
I0
I0
I0
I0
I0
I0
I0
I0
I0
I0
I0
I0
I0
I0
I0
I0
I0
I0
I0
I0
I0
I0
I0
I0
I0
I0
I0
I0
I0
I0
I0
I0
I0
I0
I0
I0
I0
I0
I0
I0
I0
I0
I0
I0
I0
I0
I0
I0
I0
I0
I0
I0
I0
I0
I0
I0
I0
I0
I0
I0
I0
I0
I0
I0
I0
I0
I0
I0
I0
I0
I0
I0
I0
I0
I0
I0
I0
I0
I0
I0
I0
I0
I0
I0
I0
I0
I0
I0
I0
I0
I0
I0
I0
I0
I0
I0
I0
I0
I0
I0
I100
I100
I100
I100
I100
I100
I100
I100
I100
I100
I0
I0
I0
I0
I0
I0
I0
I0
I0
I0
I0
I0
I0
I-1
I0
I0
I0
I0
I0
I0
I0
I0
I0
I0
I0
I0
I0
I0
I0
I100
I100
I100
I100
I100
I100
I100
I100
I100
I100
I0
I0
I0
I0
I0
I0
I0
I0
I0
I0
I0
I0
I0
I0
I0
I0
I0
I0
I0
I0
I0
I0
I0
I0
I0
I0
I0
I0
I0
I0
I0
I0
I0
I0
I0
I0
I0
I0
I0
I0
I0
I0
I0
I0
I0
I0
I0
I0
I0
I0
I0
I0
I0
I0
I0
I0
I0
I0
I0
I0
I0
I0
I0
I0
I0
I0
I0
I0
I0
I0
I0
I0
I0
I0
I0
I0
I0
I0
I0
I0
I0
I0
I0
I0
I0
I0
I0
I0
I0
I0
I0
I0
I0
I0
I0
I0
I0
I0
I0
I0
I0
I0
I0
I0
I0
I0
I0
I0
I0
I0
I0
I0
I0
I0
I0
I0
I0
I0
I0
I0
I0
I0
I0
I0
I0
I0
I0
I0
I0
I0
I0
I0
I0
I0
I0
I0
I0
I0
I0
I0
I0
I0
I0
I0
I0
I0
I0
I0
I0
I0
I0
I0
I100
I100
I100
I100
I100
I100
I100
I100
I100
I100
I0
I0
I0
I0
I0
I0
I0
I0
I0
I0
I0
I0
I0
I-1
I0
I0
I0
I0
I0
I0
I0
I0
I0
I0
I0
I0
I0
I0
I0
I100
I100
I100
I100
I100
I100
I100
I100
I100
I0
I0
I0
I0
I0
I0
I0
I0
I0
I0
I0
I0
I0
I0
I0
I0
I0
I0
I0
I0
I0
I0
I0
I0
I0
I0
I0
I0
I0
I0
I0
I0
I0
I0
I0
I0
I0
I0
I0
I0
I0
I0
I0
I0
I0
I0
I0
I0
I0
I0
I0
I0
I0
I0
I0
I0
I0
I0
I0
I0
I0
I0
I0
I0
I0
I0
I0
I0
I0
I0
I0
I0
I0
I0
I0
I0
I0
I0
I0
I0
I0
I0
I0
I0
I0
I0
I0
I0
I0
I0
I0
I0
I0
I0
I0
I0
I0
I0
I0
I0
I0
I0
I0
I0
I0
I0
I0
I0
I0
I0
I0
I0
I0
I0
I0
I0
I0
I0
I0
I0
I0
I0
I0
I0
I0
I0
I0
I0
I0
I0
I0
I0
I0
I0
I0
I0
I0
I0
I0
I0
I0
I0
I0
I0
I0
I0
I0
I0
I0
I0
I0
I0
I0
I0
I100
I100
I100
I100
I100
I100
I100
I100
I0
I0
I0
I0
I0
I0
I0
I0
I0
I0
I0
I0
I0
I0
I-1
I0
I0
I0
I0
I0
I0
I0
I0
I0
I0
I0
I0
I0
I0
I0
I0
I100
I100
I100
I100
I100
I100
I100
I0
I0
I0
I0
I0
I0
I0
I0
I0
I0
I0
I0
I0
I0
I0
I0
I0
I0
I0
I0
I0
I0
I0
I0
I0
I0
I0
I100
I100
I100
I100
I0
I0
I0
I0
I0
I0
I0
I0
I0
I0
I0
I0
I0
I0
I0
I0
I0
I0
I0
I0
I0
I0
I0
I0
I0
I0
I0
I0
I0
I0
I0
I0
I0
I0
I0
I0
I0
I0
I0
I0
I0
I0
I0
I0
I0
I0
I0
I0
I0
I0
I0
I0
I0
I0
I0
I0
I0
I0
I0
I0
I0
I0
I0
I0
I0
I0
I0
I0
I0
I0
I0
I0
I0
I0
I0
I0
I0
I0
I0
I0
I0
I0
I0
I0
I0
I0
I0
I0
I0
I0
I0
I0
I0
I0
I0
I0
I0
I0
I0
I0
I0
I0
I0
I0
I0
I0
I0
I0
I0
I0
I0
I0
I0
I0
I0
I0
I0
I0
I0
I0
I0
I0
I0
I0
I0
I100
I100
I100
I100
I100
I100
I0
I0
I0
I0
I0
I0
I0
I0
I0
I0
I0
I0
I0
I0
I0
I-1
I0
I0
I0
I0
I0
I0
I0
I0
I0
I0
I0
I0
I0
I0
I0
I0
I0
I100
I100
I100
I100
I100
I0
I0
I0
I0
I0
I0
I0
I0
I0
I0
I0
I0
I0
I0
I0
I0
I0
I0
I0
I0
I0
I0
I0
I0
I0
I0
I100
I100
I100
I100
I100
I100
I100
I0
I0
I0
I0
I0
I0
I0
I0
I0
I0
I0
I0
I0
I0
I0
I0
I0
I0
I0
I0
I0
I0
I0
I0
I0
I0
I0
I0
I0
I0
I0
I0
I0
I0
I0
I0
I0
I0
I0
I0
I0
I0
I0
I0
I0
I0
I0
I0
I0
I0
I0
I0
I0
I0
I0
I0
I0
I0
I0
I0
I0
I0
I0
I0
I0
I0
I0
I0
I0
I0
I0
I0
I0
I0
I0
I0
I0
I0
I0
I0
I0
I0
I0
I0
I0
I0
I0
I0
I0
I0
I0
I0
I0
I0
I0
I0
I0
I0
I0
I0
I0
I0
I0
I0
I0
I0
I0
I0
I0
I0
I0
I0
I0
I0
I0
I0
I0
I0
I0
I0
I0
I0
I0
I0
I0
I0
I0
I0
I0
I0
I0
I0
I0
I0
I0
I0
I0
I0
I0
I0
I0
I0
I0
I0
I0
I-1
I0
I0
I0
I0
I0
I0
I0
I0
I0
I0
I0
I0
I0
I0
I0
I0
I0
I0
I0
I0
I0
I0
I0
I0
I0
I0
I0
I0
I0
I0
I0
I0
I0
I0
I0
I0
I0
I0
I0
I0
I0
I0
I0
I0
I0
I0
I0
I100
I100
I100
I100
I100
I100
I100
I100
I100
I0
I0
I0
I0
I0
I0
I0
I0
I0
I0
I0
I0
I0
I0
I0
I0
I0
I0
I0
I0
I0
I0
I0
I0
I0
I0
I0
I0
I0
I0
I0
I0
I0
I0
I0
I0
I0
I0
I0
I0
I0
I0
I0
I0
I0
I0
I0
I0
I0
I0
I0
I0
I0
I0
I0
I0
I0
I0
I0
I0
I0
I0
I0
I0
I0
I0
I0
I0
I0
I0
I0
I0
I0
I0
I0
I0
I0
I0
I0
I0
I0
I0
I0
I0
I0
I0
I0
I0
I0
I0
I0
I0
I0
I0
I0
I0
I0
I0
I0
I0
I0
I0
I0
I0
I0
I0
I0
I0
I0
I0
I0
I0
I0
I0
I0
I0
I0
I0
I0
I0
I0
I0
I0
I0
I0
I0
I0
I0
I0
I0
I0
I0
I0
I0
I0
I0
I0
I0
I0
I0
I0
I0
I0
I0
I-1
I0
I0
I0
I0
I0
I0
I0
I0
I0
I0
I0
I0
I0
I0
I0
I0
I0
I0
I0
I0
I0
I0
I0
I0
I0
I0
I0
I0
I0
I0
I0
I0
I0
I0
I0
I0
I0
I0
I0
I0
I0
I0
I0
I0
I0
I0
I0
I100
I100
I100
I100
I100
I100
I100
I100
I100
I100
I0
I0
I0
I0
I0
I0
I0
I0
I0
I0
I0
I0
I0
I0
I0
I0
I0
I0
I0
I0
I0
I0
I0
I0
I0
I0
I0
I0
I0
I0
I0
I0
I0
I0
I0
I0
I0
I0
I0
I0
I0
I0
I0
I0
I0
I0
I0
I0
I0
I0
I0
I0
I0
I0
I0
I0
I0
I0
I0
I0
I0
I0
I0
I0
I0
I0
I0
I0
I0
I0
I0
I0
I0
I0
I0
I0
I0
I0
I0
I0
I0
I0
I0
I0
I0
I0
I0
I0
I0
I0
I0
I0
I0
I0
I0
I0
I0
I0
I0
I0
I0
I0
I0
I0
I0
I100
I100
I100
I100
I100
I100
I100
I100
I100
I100
I100
I0
I0
I0
I0
I0
I0
I0
I0
I0
I0
I0
I0
I0
I0
I0
I0
I0
I0
I0
I0
I0
I0
I0
I0
I0
I0
I0
I-1
I0
I0
I0
I0
I0
I0
I0
I0
I0
I0
I0
I0
I0
I0
I0
I0
I0
I0
I0
I0
I0
I0
I0
I0
I0
I0
I0
I0
I0
I0
I0
I0
I0
I0
I0
I0
I0
I0
I0
I0
I0
I0
I0
I0
I0
I0
I0
I100
I100
I100
I100
I100
I100
I100
I100
I100
I100
I0
I0
I0
I0
I0
I0
I0
I0
I0
I0
I0
I0
I0
I0
I0
I0
I0
I0
I0
I0
I0
I0
I0
I0
I0
I0
I0
I0
I0
I0
I0
I0
I0
I0
I0
I0
I0
I0
I0
I0
I0
I0
I0
I0
I0
I0
I0
I0
I0
I0
I0
I0
I0
I0
I0
I0
I0
I0
I0
I0
I0
I0
I0
I0
I0
I0
I0
I0
I0
I0
I0
I0
I0
I0
I0
I0
I0
I0
I0
I0
I0
I0
I0
I0
I0
I0
I0
I0
I0
I0
I0
I0
I0
I0
I0
I0
I0
I0
I0
I0
I0
I0
I0
I0
I0
I100
I100
I100
I100
I100
I100
I100
I100
I100
I100
I100
I0
I0
I0
I0
I0
I0
I0
I0
I0
I0
I0
I0
I0
I0
I0
I0
I0
I0
I0
I0
I0
I0
I0
I0
I0
I0
I0
I-1
I0
I0
I0
I0
I0
I0
I0
I0
I0
I0
I0
I0
I0
I0
I0
I0
I0
I0
I0
I0
I0
I0
I0
I0
I0
I0
I0
I0
I0
I0
I0
I0
I0
I0
I0
I0
I0
I0
I0
I0
I0
I0
I0
I0
I0
I0
I100
I100
I100
I100
I100
I100
I100
I100
I100
I100
I100
I0
I0
I0
I0
I0
I0
I0
I0
I0
I0
I0
I0
I0
I0
I0
I0
I0
I0
I0
I0
I0
I0
I0
I0
I0
I0
I0
I0
I0
I0
I0
I0
I0
I0
I0
I0
I0
I0
I0
I0
I0
I0
I0
I0
I0
I0
I0
I0
I0
I0
I0
I0
I0
I0
I0
I0
I0
I0
I0
I0
I0
I0
I0
I0
I0
I0
I0
I0
I0
I0
I0
I0
I0
I0
I0
I0
I0
I0
I0
I0
I0
I0
I0
I0
I0
I0
I0
I0
I0
I0
I0
I0
I0
I0
I0
I0
I0
I0
I0
I0
I0
I0
I0
I0
I0
I100
I100
I100
I100
I100
I100
I100
I100
I100
I100
I100
I0
I0
I0
I0
I0
I0
I0
I0
I0
I0
I0
I0
I0
I0
I0
I0
I0
I0
I0
I0
I0
I0
I0
I0
I0
I0
I0
I-1
I0
I0
I0
I0
I0
I0
I0
I0
I0
I0
I0
I0
I0
I0
I0
I0
I0
I0
I0
I0
I0
I0
I0
I0
I0
I0
I0
I0
I0
I0
I0
I0
I0
I0
I0
I0
I0
I0
I0
I0
I0
I0
I0
I0
I0
I0
I100
I100
I100
I100
I100
I100
I100
I100
I100
I100
I100
I0
I0
I0
I0
I0
I0
I0
I0
I0
I0
I0
I0
I0
I0
I0
I0
I0
I0
I0
I0
I0
I0
I0
I0
I0
I0
I0
I0
I0
I0
I0
I0
I0
I0
I0
I0
I0
I0
I0
I0
I0
I0
I0
I0
I0
I0
I0
I0
I0
I0
I0
I0
I0
I0
I0
I0
I0
I0
I0
I0
I0
I0
I0
I0
I0
I0
I0
I0
I0
I0
I0
I0
I0
I0
I0
I0
I0
I0
I0
I0
I0
I0
I0
I0
I0
I0
I0
I0
I0
I0
I0
I0
I0
I0
I0
I0
I0
I0
I0
I0
I0
I0
I0
I0
I0
I100
I100
I100
I100
I100
I100
I100
I100
I100
I100
I100
I0
I0
I0
I0
I0
I0
I0
I0
I0
I0
I0
I0
I0
I0
I0
I0
I0
I0
I0
I0
I0
I0
I0
I0
I0
I0
I0
I-1
I0
I0
I0
I0
I0
I0
I0
I0
I0
I0
I0
I0
I0
I0
I0
I0
I0
I0
I0
I0
I0
I0
I0
I0
I0
I0
I0
I0
I0
I0
I0
I0
I0
I0
I0
I0
I0
I0
I0
I0
I0
I0
I0
I0
I0
I0
I0
I100
I100
I100
I100
I100
I100
I100
I100
I100
I100
I0
I0
I0
I0
I0
I0
I0
I0
I0
I0
I0
I0
I0
I0
I0
I0
I0
I0
I0
I0
I0
I0
I0
I0
I0
I0
I0
I0
I0
I0
I0
I0
I0
I0
I0
I0
I0
I0
I0
I0
I0
I0
I0
I0
I0
I0
I0
I0
I0
I0
I0
I0
I0
I0
I0
I0
I0
I0
I0
I0
I0
I0
I0
I0
I0
I0
I0
I0
I0
I0
I0
I0
I0
I0
I0
I0
I0
I0
I0
I0
I0
I0
I0
I0
I0
I0
I0
I0
I0
I0
I0
I0
I0
I0
I0
I0
I0
I0
I0
I0
I0
I0
I0
I0
I0
I100
I100
I100
I100
I100
I100
I100
I100
I100
I100
I100
I0
I0
I0
I0
I0
I0
I0
I0
I0
I0
I0
I0
I0
I0
I0
I0
I0
I0
I0
I0
I0
I0
I0
I0
I0
I0
I0
I-1
I0
I0
I0
I0
I0
I0
I0
I0
I0
I0
I0
I0
I0
I0
I0
I0
I0
I0
I0
I0
I0
I0
I0
I0
I0
I0
I0
I0
I0
I0
I0
I0
I0
I0
I0
I0
I0
I0
I0
I0
I0
I0
I0
I0
I0
I0
I0
I100
I100
I100
I100
I100
I100
I100
I100
I100
I0
I0
I0
I0
I0
I0
I0
I0
I0
I0
I0
I0
I0
I0
I0
I0
I0
I0
I0
I0
I0
I0
I0
I0
I0
I0
I0
I0
I0
I0
I0
I0
I0
I0
I0
I0
I0
I0
I0
I0
I0
I0
I0
I0
I0
I0
I0
I0
I0
I0
I0
I0
I0
I0
I0
I0
I0
I0
I0
I0
I0
I0
I0
I0
I0
I0
I0
I0
I0
I0
I0
I0
I0
I0
I0
I0
I0
I0
I0
I0
I0
I0
I0
I0
I0
I0
I0
I0
I0
I0
I0
I0
I0
I0
I0
I0
I0
I0
I0
I0
I0
I0
I0
I0
I0
I0
I100
I100
I100
I100
I100
I100
I100
I100
I100
I100
I100
I0
I0
I0
I0
I0
I0
I0
I0
I0
I0
I0
I0
I0
I0
I0
I0
I0
I0
I0
I0
I0
I0
I0
I0
I0
I0
I0
I-1
I0
I0
I0
I0
I0
I0
I0
I0
I0
I0
I0
I0
I0
I0
I0
I0
I0
I0
I0
I0
I0
I0
I0
I0
I0
I0
I0
I0
I0
I0
I0
I0
I0
I0
I0
I0
I0
I0
I0
I0
I0
I0
I0
I0
I0
I0
I0
I0
I100
I100
I100
I100
I100
I100
I100
I100
I0
I0
I0
I0
I0
I0
I0
I0
I0
I0
I0
I0
I0
I0
I0
I0
I0
I0
I0
I0
I0
I0
I0
I0
I0
I0
I0
I0
I0
I0
I0
I0
I0
I0
I0
I0
I0
I0
I0
I0
I0
I0
I0
I0
I0
I0
I0
I0
I0
I0
I0
I0
I0
I0
I0
I0
I0
I0
I0
I0
I0
I0
I0
I0
I0
I0
I0
I0
I0
I0
I0
I0
I0
I0
I0
I0
I0
I0
I0
I0
I0
I0
I0
I0
I0
I0
I0
I0
I0
I0
I0
I0
I0
I0
I0
I0
I0
I0
I0
I0
I0
I0
I0
I0
I0
I0
I100
I100
I100
I100
I100
I100
I100
I100
I100
I100
I100
I0
I0
I0
I0
I0
I0
I0
I0
I0
I0
I0
I0
I0
I0
I0
I0
I0
I0
I0
I0
I0
I0
I0
I0
I0
I0
I0
I-1
I0
I0
I0
I0
I0
I0
I0
I0
I0
I0
I0
I0
I0
I0
I0
I0
I0
I0
I0
I0
I0
I0
I0
I0
I0
I0
I0
I0
I0
I0
I0
I0
I0
I0
I0
I0
I0
I0
I0
I0
I0
I0
I0
I0
I0
I0
I0
I0
I0
I100
I100
I100
I100
I100
I0
I0
I0
I0
I0
I0
I0
I0
I0
I0
I0
I0
I0
I0
I0
I0
I0
I0
I0
I0
I0
I0
I0
I0
I0
I0
I0
I0
I0
I0
I0
I0
I0
I0
I0
I0
I0
I0
I0
I0
I0
I0
I0
I0
I0
I0
I0
I0
I0
I0
I0
I0
I0
I0
I0
I0
I0
I0
I0
I0
I0
I0
I0
I0
I0
I0
I0
I0
I0
I0
I0
I0
I0
I0
I0
I0
I0
I0
I0
I0
I0
I0
I0
I0
I0
I0
I0
I0
I0
I0
I0
I0
I0
I0
I0
I0
I0
I0
I0
I0
I0
I0
I0
I0
I0
I0
I0
I0
I100
I100
I100
I100
I100
I100
I100
I100
I100
I100
I100
I0
I0
I0
I0
I0
I0
I0
I0
I0
I0
I0
I0
I0
I0
I0
I0
I0
I0
I0
I0
I0
I0
I0
I0
I0
I0
I0
I-1
I0
I0
I0
I0
I0
I0
I0
I0
I0
I0
I0
I0
I0
I0
I0
I0
I0
I0
I0
I0
I0
I0
I0
I0
I0
I0
I0
I0
I0
I0
I0
I0
I0
I0
I0
I0
I0
I0
I0
I0
I0
I0
I0
I0
I0
I0
I0
I0
I0
I0
I0
I0
I0
I0
I0
I0
I0
I0
I0
I0
I0
I0
I0
I0
I0
I0
I0
I0
I0
I0
I0
I0
I0
I0
I0
I0
I0
I0
I0
I0
I0
I0
I0
I0
I0
I0
I0
I0
I0
I0
I0
I0
I0
I0
I0
I0
I0
I0
I0
I0
I0
I0
I0
I0
I0
I0
I0
I0
I0
I0
I0
I0
I0
I0
I0
I0
I0
I0
I0
I0
I0
I0
I0
I0
I0
I0
I0
I0
I0
I0
I0
I0
I0
I0
I0
I0
I0
I0
I0
I0
I0
I0
I0
I0
I0
I0
I0
I0
I0
I0
I0
I0
I0
I0
I0
I0
I0
I0
I0
I0
I0
I0
I100
I100
I100
I100
I100
I100
I100
I100
I100
I100
I100
I0
I0
I0
I0
I0
I0
I0
I0
I0
I0
I0
I0
I0
I0
I0
I0
I0
I0
I0
I0
I0
I0
I0
I0
I0
I0
I0
I-1
I0
I0
I0
I0
I0
I0
I0
I0
I0
I0
I0
I0
I0
I0
I0
I0
I0
I0
I0
I0
I0
I0
I0
I0
I0
I0
I0
I0
I0
I0
I0
I0
I0
I0
I0
I0
I0
I0
I0
I0
I0
I0
I0
I0
I0
I0
I0
I0
I0
I0
I0
I0
I0
I0
I0
I0
I0
I0
I0
I0
I0
I0
I0
I0
I0
I0
I0
I0
I0
I0
I0
I0
I0
I0
I0
I0
I0
I0
I0
I0
I0
I0
I0
I0
I0
I0
I0
I0
I0
I0
I0
I0
I0
I0
I0
I0
I0
I0
I0
I0
I0
I0
I0
I0
I0
I0
I0
I0
I0
I0
I0
I0
I0
I0
I0
I0
I0
I0
I0
I0
I0
I0
I0
I0
I0
I0
I0
I0
I0
I0
I0
I0
I0
I0
I0
I0
I0
I0
I0
I0
I0
I0
I0
I0
I0
I0
I0
I0
I0
I0
I0
I0
I0
I0
I0
I0
I0
I0
I0
I0
I0
I0
I100
I100
I100
I100
I100
I100
I100
I100
I100
I100
I100
I0
I0
I0
I0
I0
I0
I0
I0
I0
I0
I0
I0
I0
I0
I0
I0
I0
I0
I0
I0
I0
I0
I0
I0
I0
I0
I0
I-1
I0
I0
I0
I0
I0
I0
I0
I0
I0
I0
I0
I0
I0
I0
I0
I0
I0
I0
I0
I0
I0
I0
I0
I0
I0
I0
I0
I0
I0
I0
I0
I0
I0
I0
I0
I0
I0
I0
I0
I0
I0
I0
I0
I0
I0
I0
I0
I0
I0
I0
I0
I0
I0
I0
I0
I0
I0
I0
I0
I0
I0
I0
I0
I0
I0
I0
I0
I0
I0
I0
I0
I0
I0
I0
I0
I0
I0
I0
I0
I0
I0
I0
I0
I0
I0
I0
I0
I0
I0
I0
I0
I0
I0
I0
I0
I0
I0
I0
I0
I0
I0
I0
I0
I0
I0
I0
I0
I0
I0
I0
I0
I0
I0
I0
I0
I0
I0
I0
I0
I0
I0
I0
I0
I0
I0
I0
I0
I0
I0
I0
I0
I0
I0
I0
I0
I0
I0
I0
I0
I0
I0
I0
I0
I0
I0
I0
I0
I0
I0
I0
I0
I0
I0
I0
I0
I0
I0
I0
I0
I0
I0
I0
I0
I100
I100
I100
I100
I100
I100
I100
I100
I100
I100
I0
I0
I0
I0
I0
I0
I0
I0
I0
I0
I0
I0
I0
I0
I0
I0
I0
I0
I0
I0
I0
I0
I0
I0
I0
I0
I0
I-1
I0
I0
I0
I0
I0
I0
I0
I0
I0
I0
I0
I0
I0
I0
I0
I0
I0
I0
I0
I0
I0
I0
I0
I0
I0
I0
I0
I0
I0
I0
I0
I0
I0
I0
I0
I0
I0
I0
I0
I0
I0
I0
I0
I0
I0
I0
I0
I0
I0
I0
I0
I0
I0
I0
I0
I0
I0
I0
I0
I0
I0
I0
I0
I0
I0
I0
I0
I0
I0
I0
I0
I0
I0
I0
I0
I0
I0
I0
I0
I0
I0
I0
I0
I0
I0
I0
I0
I0
I0
I0
I0
I0
I0
I0
I0
I0
I0
I0
I0
I0
I0
I0
I0
I0
I0
I0
I0
I0
I0
I0
I0
I0
I0
I0
I0
I0
I0
I0
I0
I0
I0
I0
I0
I0
I0
I0
I0
I0
I0
I0
I0
I0
I0
I0
I0
I0
I0
I0
I0
I0
I0
I0
I0
I0
I0
I0
I0
I0
I0
I0
I0
I0
I0
I0
I0
I0
I0
I0
I0
I0
I0
I0
I0
I0
I0
I0
I0
I0
I0
I0
I0
I0
I0
I0
I0
I0
I0
I0
I0
I0
I0
I0
I0
I0
I0
I0
I0
I0
I0
I0
I0
I0
I0
I0
I0
I0
I0
I0
I0
I0
I-1
I0
I0
I0
I0
I0
I0
I0
I0
I0
I0
I0
I0
I0
I0
I0
I0
I0
I0
I0
I0
I0
I0
I0
I0
I0
I0
I0
I0
I0
I0
I0
I0
I0
I0
I0
I0
I0
I0
I0
I0
I0
I0
I0
I0
I0
I0
I0
I0
I0
I0
I0
I0
I0
I0
I0
I0
I0
I0
I0
I0
I0
I0
I0
I0
I0
I0
I0
I0
I0
I0
I0
I0
I0
I0
I0
I0
I0
I0
I0
I0
I0
I0
I0
I0
I0
I0
I0
I0
I0
I0
I0
I0
I0
I0
I0
I0
I0
I0
I0
I0
I0
I0
I0
I0
I0
I0
I0
I0
I0
I0
I0
I0
I0
I0
I0
I0
I0
I0
I0
I0
I0
I0
I0
I0
I0
I0
I0
I0
I0
I0
I0
I0
I0
I0
I0
I0
I0
I0
I0
I0
I0
I0
I0
I0
I0
I0
I0
I0
I0
I0
I0
I0
I0
I0
I0
I0
I0
I0
I0
I0
I0
I0
I0
I0
I0
I0
I0
I0
I0
I0
I0
I0
I0
I0
I0
I0
I0
I0
I0
I0
I0
I0
I0
I0
I0
I0
I0
I0
I0
I0
I0
I0
I0
I0
I0
I0
I0
I0
I0
I0
I-1
I-1
I-1
I-1
I-1
I-1
I-1
I-1
I-1
I-1
I-1
I-1
I-1
I-1
I-1
I-1
I-1
I-1
I-1
I-1
I-1
I-1
I-1
I-1
I-1
I-1
I-1
I-1
I-1
I-1
I-1
I-1
I-1
I-1
I-1
I-1
I-1
I-1
I-1
I-1
I-1
I-1
I-1
I-1
I-1
I-1
I-1
I-1
I-1
I-1
I-1
I-1
I-1
I-1
I-1
I-1
I-1
I-1
I-1
I-1
I-1
I-1
I-1
I-1
I-1
I-1
I-1
I-1
I-1
I-1
I-1
I-1
I-1
I-1
I-1
I-1
I-1
I-1
I-1
I-1
I-1
I-1
I-1
I-1
I-1
I-1
I-1
I-1
I-1
I-1
I-1
I-1
I-1
I-1
I-1
I-1
I-1
I-1
I-1
I-1
I-1
I-1
I-1
I-1
I-1
I-1
I-1
I-1
I-1
I-1
I-1
I-1
I-1
I-1
I-1
I-1
I-1
I-1
I-1
I-1
I-1
I-1
I-1
I-1
I-1
I-1
I-1
I-1
I-1
I-1
I-1
I-1
I-1
I-1
I-1
I-1
I-1
I-1
I-1
I-1
I-1
I-1
I-1
I-1
I-1
I-1
I-1
I-1
I-1
I-1
I-1
I-1
I-1
I-1
I-1
I-1
I-1
I-1
I-1
I-1
I-1
I-1
I-1
I-1
I-1
I-1
I-1
I-1
I-1
I-1
I-1
I-1
I-1
I-1
I-1
I-1
I-1
I-1
I-1
I-1
I-1
I-1
I-1
I-1
I-1
I-1
I-1
I-1
I-1
I-1
I-1
I-1
I-1
I-1
I-1
I-1
I-1
I-1
I-1
I-1
I-1
I-1
tp34
ab.